
coremark_rv32ic.elf:     file format elf32-littleriscv


Disassembly of section .text.swinit1:

80000000 <_start>:
80000000:	00000013          	nop
80000004:	4081                	li	x1,0
80000006:	4101                	li	x2,0
80000008:	4181                	li	x3,0
8000000a:	4201                	li	x4,0
8000000c:	4281                	li	x5,0
8000000e:	4301                	li	x6,0
80000010:	4381                	li	x7,0
80000012:	4401                	li	x8,0
80000014:	4481                	li	x9,0
80000016:	4501                	li	x10,0
80000018:	4581                	li	x11,0
8000001a:	4601                	li	x12,0
8000001c:	4681                	li	x13,0
8000001e:	4701                	li	x14,0
80000020:	4781                	li	x15,0
80000022:	4801                	li	x16,0
80000024:	4881                	li	x17,0
80000026:	4901                	li	x18,0
80000028:	4981                	li	x19,0
8000002a:	4a01                	li	x20,0
8000002c:	4a81                	li	x21,0
8000002e:	4b01                	li	x22,0
80000030:	4b81                	li	x23,0
80000032:	4c01                	li	x24,0
80000034:	4c81                	li	x25,0
80000036:	4d01                	li	x26,0
80000038:	4d81                	li	x27,0
8000003a:	4e01                	li	x28,0
8000003c:	4e81                	li	x29,0
8000003e:	4f01                	li	x30,0
80000040:	4f81                	li	x31,0

80000042 <_initbss>:
80000042:	00003317          	auipc	x6,0x3
80000046:	e3a30313          	addi	x6,x6,-454 # 80002e7c <_data_vma_end>
8000004a:	00003397          	auipc	x7,0x3
8000004e:	61638393          	addi	x7,x7,1558 # 80003660 <_bss_vma_end>
80000052:	00730763          	beq	x6,x7,80000060 <_setup>

80000056 <_initbss_loop>:
80000056:	00032023          	sw	x0,0(x6)
8000005a:	0311                	addi	x6,x6,4
8000005c:	fe736de3          	bltu	x6,x7,80000056 <_initbss_loop>

80000060 <_setup>:
80000060:	40000117          	auipc	x2,0x40000
80000064:	fa010113          	addi	x2,x2,-96 # c0000000 <_stack_top>
80000068:	00010433          	add	x8,x2,x0
8000006c:	00002097          	auipc	x1,0x2
80000070:	738080e7          	jalr	1848(x1) # 800027a4 <main>
80000074:	4285                	li	x5,1
80000076:	00000317          	auipc	x6,0x0
8000007a:	02a30313          	addi	x6,x6,42 # 800000a0 <tohost>
8000007e:	00532023          	sw	x5,0(x6)
80000082:	00032223          	sw	x0,4(x6)
80000086:	00000097          	auipc	x1,0x0
8000008a:	00e080e7          	jalr	14(x1) # 80000094 <_fini>
8000008e:	0001                	nop
80000090:	0001                	nop

Disassembly of section .text.swfin:

80000092 <_fini-0x2>:
	...

80000094 <_fini>:
80000094:	00000063          	beqz	x0,80000094 <_fini>
80000098:	0001                	nop
8000009a:	0001                	nop

Disassembly of section .tohost:

8000009c <tohost-0x4>:
8000009c:	0000                	unimp
	...

800000a0 <tohost>:
	...

Disassembly of section .fromhost:

800000a8 <fromhost>:
	...

Disassembly of section .text:

800000b0 <cmp_idx>:
800000b0:	e61d                	bnez	x12,800000de <cmp_idx+0x2e>
800000b2:	00051783          	lh	x15,0(x10)
800000b6:	01079713          	slli	x14,x15,0x10
800000ba:	8341                	srli	x14,x14,0x10
800000bc:	8321                	srli	x14,x14,0x8
800000be:	f007f793          	andi	x15,x15,-256
800000c2:	8fd9                	or	x15,x15,x14
800000c4:	00f51023          	sh	x15,0(x10)
800000c8:	00059783          	lh	x15,0(x11)
800000cc:	01079713          	slli	x14,x15,0x10
800000d0:	8341                	srli	x14,x14,0x10
800000d2:	f007f793          	andi	x15,x15,-256
800000d6:	8321                	srli	x14,x14,0x8
800000d8:	8fd9                	or	x15,x15,x14
800000da:	00f59023          	sh	x15,0(x11)
800000de:	00251503          	lh	x10,2(x10)
800000e2:	00259783          	lh	x15,2(x11)
800000e6:	8d1d                	sub	x10,x10,x15
800000e8:	8082                	ret

800000ea <core_list_mergesort.constprop.4>:
800000ea:	4f05                	li	x30,1
800000ec:	4385                	li	x7,1
800000ee:	c54d                	beqz	x10,80000198 <core_list_mergesort.constprop.4+0xae>
800000f0:	4601                	li	x12,0
800000f2:	4f81                	li	x31,0
800000f4:	4281                	li	x5,0
800000f6:	0285                	addi	x5,x5,1
800000f8:	87aa                	mv	x15,x10
800000fa:	4681                	li	x13,0
800000fc:	439c                	lw	x15,0(x15)
800000fe:	0685                	addi	x13,x13,1
80000100:	c399                	beqz	x15,80000106 <core_list_mergesort.constprop.4+0x1c>
80000102:	ffe69de3          	bne	x13,x30,800000fc <core_list_mergesort.constprop.4+0x12>
80000106:	85fa                	mv	x11,x30
80000108:	c2b5                	beqz	x13,8000016c <core_list_mergesort.constprop.4+0x82>
8000010a:	c9b5                	beqz	x11,8000017e <core_list_mergesort.constprop.4+0x94>
8000010c:	cbad                	beqz	x15,8000017e <core_list_mergesort.constprop.4+0x94>
8000010e:	00452303          	lw	x6,4(x10)
80000112:	0047a883          	lw	x17,4(x15)
80000116:	00031703          	lh	x14,0(x6)
8000011a:	00289e83          	lh	x29,2(x17)
8000011e:	00231803          	lh	x16,2(x6)
80000122:	01071e13          	slli	x28,x14,0x10
80000126:	010e5e13          	srli	x28,x28,0x10
8000012a:	f0077713          	andi	x14,x14,-256
8000012e:	008e5e13          	srli	x28,x28,0x8
80000132:	01c76733          	or	x14,x14,x28
80000136:	00e31023          	sh	x14,0(x6)
8000013a:	00089703          	lh	x14,0(x17)
8000013e:	41d80833          	sub	x16,x16,x29
80000142:	01071313          	slli	x6,x14,0x10
80000146:	01035313          	srli	x6,x6,0x10
8000014a:	f0077713          	andi	x14,x14,-256
8000014e:	00835313          	srli	x6,x6,0x8
80000152:	00676733          	or	x14,x14,x6
80000156:	00e89023          	sh	x14,0(x17)
8000015a:	03005263          	blez	x16,8000017e <core_list_mergesort.constprop.4+0x94>
8000015e:	873e                	mv	x14,x15
80000160:	439c                	lw	x15,0(x15)
80000162:	15fd                	addi	x11,x11,-1
80000164:	ca11                	beqz	x12,80000178 <core_list_mergesort.constprop.4+0x8e>
80000166:	c218                	sw	x14,0(x12)
80000168:	863a                	mv	x12,x14
8000016a:	f2c5                	bnez	x13,8000010a <core_list_mergesort.constprop.4+0x20>
8000016c:	cd89                	beqz	x11,80000186 <core_list_mergesort.constprop.4+0x9c>
8000016e:	cf91                	beqz	x15,8000018a <core_list_mergesort.constprop.4+0xa0>
80000170:	873e                	mv	x14,x15
80000172:	15fd                	addi	x11,x11,-1
80000174:	439c                	lw	x15,0(x15)
80000176:	fa65                	bnez	x12,80000166 <core_list_mergesort.constprop.4+0x7c>
80000178:	8fba                	mv	x31,x14
8000017a:	863a                	mv	x12,x14
8000017c:	b7fd                	j	8000016a <core_list_mergesort.constprop.4+0x80>
8000017e:	872a                	mv	x14,x10
80000180:	16fd                	addi	x13,x13,-1
80000182:	4108                	lw	x10,0(x10)
80000184:	b7c5                	j	80000164 <core_list_mergesort.constprop.4+0x7a>
80000186:	853e                	mv	x10,x15
80000188:	f7bd                	bnez	x15,800000f6 <core_list_mergesort.constprop.4+0xc>
8000018a:	00062023          	sw	x0,0(x12)
8000018e:	00728863          	beq	x5,x7,8000019e <core_list_mergesort.constprop.4+0xb4>
80000192:	0f06                	slli	x30,x30,0x1
80000194:	857e                	mv	x10,x31
80000196:	bfa1                	j	800000ee <core_list_mergesort.constprop.4+0x4>
80000198:	00002023          	sw	x0,0(x0) # 0 <_text_start-0x80000000>
8000019c:	9002                	ebreak
8000019e:	857e                	mv	x10,x31
800001a0:	8082                	ret

800001a2 <crcu16>:
800001a2:	00a5c733          	xor	x14,x11,x10
800001a6:	0ff57693          	andi	x13,x10,255
800001aa:	8b05                	andi	x14,x14,1
800001ac:	0016d613          	srli	x12,x13,0x1
800001b0:	0015d793          	srli	x15,x11,0x1
800001b4:	c711                	beqz	x14,800001c0 <crcu16+0x1e>
800001b6:	7769                	lui	x14,0xffffa
800001b8:	0705                	addi	x14,x14,1
800001ba:	8fb9                	xor	x15,x15,x14
800001bc:	07c2                	slli	x15,x15,0x10
800001be:	83c1                	srli	x15,x15,0x10
800001c0:	8e3d                	xor	x12,x12,x15
800001c2:	8a05                	andi	x12,x12,1
800001c4:	0026d713          	srli	x14,x13,0x2
800001c8:	8385                	srli	x15,x15,0x1
800001ca:	c611                	beqz	x12,800001d6 <crcu16+0x34>
800001cc:	7669                	lui	x12,0xffffa
800001ce:	0605                	addi	x12,x12,1
800001d0:	8fb1                	xor	x15,x15,x12
800001d2:	07c2                	slli	x15,x15,0x10
800001d4:	83c1                	srli	x15,x15,0x10
800001d6:	8f3d                	xor	x14,x14,x15
800001d8:	8b05                	andi	x14,x14,1
800001da:	0036d613          	srli	x12,x13,0x3
800001de:	8385                	srli	x15,x15,0x1
800001e0:	c711                	beqz	x14,800001ec <crcu16+0x4a>
800001e2:	7769                	lui	x14,0xffffa
800001e4:	0705                	addi	x14,x14,1
800001e6:	8fb9                	xor	x15,x15,x14
800001e8:	07c2                	slli	x15,x15,0x10
800001ea:	83c1                	srli	x15,x15,0x10
800001ec:	8e3d                	xor	x12,x12,x15
800001ee:	8a05                	andi	x12,x12,1
800001f0:	0046d713          	srli	x14,x13,0x4
800001f4:	8385                	srli	x15,x15,0x1
800001f6:	c611                	beqz	x12,80000202 <crcu16+0x60>
800001f8:	7669                	lui	x12,0xffffa
800001fa:	0605                	addi	x12,x12,1
800001fc:	8fb1                	xor	x15,x15,x12
800001fe:	07c2                	slli	x15,x15,0x10
80000200:	83c1                	srli	x15,x15,0x10
80000202:	8f3d                	xor	x14,x14,x15
80000204:	8b05                	andi	x14,x14,1
80000206:	0056d613          	srli	x12,x13,0x5
8000020a:	8385                	srli	x15,x15,0x1
8000020c:	c711                	beqz	x14,80000218 <crcu16+0x76>
8000020e:	7769                	lui	x14,0xffffa
80000210:	0705                	addi	x14,x14,1
80000212:	8fb9                	xor	x15,x15,x14
80000214:	07c2                	slli	x15,x15,0x10
80000216:	83c1                	srli	x15,x15,0x10
80000218:	8e3d                	xor	x12,x12,x15
8000021a:	8a05                	andi	x12,x12,1
8000021c:	0066d713          	srli	x14,x13,0x6
80000220:	8385                	srli	x15,x15,0x1
80000222:	c611                	beqz	x12,8000022e <crcu16+0x8c>
80000224:	7669                	lui	x12,0xffffa
80000226:	0605                	addi	x12,x12,1
80000228:	8fb1                	xor	x15,x15,x12
8000022a:	07c2                	slli	x15,x15,0x10
8000022c:	83c1                	srli	x15,x15,0x10
8000022e:	8f3d                	xor	x14,x14,x15
80000230:	8b05                	andi	x14,x14,1
80000232:	829d                	srli	x13,x13,0x7
80000234:	8385                	srli	x15,x15,0x1
80000236:	c711                	beqz	x14,80000242 <crcu16+0xa0>
80000238:	7769                	lui	x14,0xffffa
8000023a:	0705                	addi	x14,x14,1
8000023c:	8fb9                	xor	x15,x15,x14
8000023e:	07c2                	slli	x15,x15,0x10
80000240:	83c1                	srli	x15,x15,0x10
80000242:	0017f713          	andi	x14,x15,1
80000246:	8385                	srli	x15,x15,0x1
80000248:	00d70763          	beq	x14,x13,80000256 <crcu16+0xb4>
8000024c:	7769                	lui	x14,0xffffa
8000024e:	0705                	addi	x14,x14,1
80000250:	8fb9                	xor	x15,x15,x14
80000252:	07c2                	slli	x15,x15,0x10
80000254:	83c1                	srli	x15,x15,0x10
80000256:	8121                	srli	x10,x10,0x8
80000258:	00a7c633          	xor	x12,x15,x10
8000025c:	0ff57713          	andi	x14,x10,255
80000260:	8a05                	andi	x12,x12,1
80000262:	00175693          	srli	x13,x14,0x1
80000266:	0017d513          	srli	x10,x15,0x1
8000026a:	c611                	beqz	x12,80000276 <crcu16+0xd4>
8000026c:	77e9                	lui	x15,0xffffa
8000026e:	0785                	addi	x15,x15,1
80000270:	8d3d                	xor	x10,x10,x15
80000272:	0542                	slli	x10,x10,0x10
80000274:	8141                	srli	x10,x10,0x10
80000276:	8ea9                	xor	x13,x13,x10
80000278:	8a85                	andi	x13,x13,1
8000027a:	00275793          	srli	x15,x14,0x2
8000027e:	8105                	srli	x10,x10,0x1
80000280:	c691                	beqz	x13,8000028c <crcu16+0xea>
80000282:	76e9                	lui	x13,0xffffa
80000284:	0685                	addi	x13,x13,1
80000286:	8d35                	xor	x10,x10,x13
80000288:	0542                	slli	x10,x10,0x10
8000028a:	8141                	srli	x10,x10,0x10
8000028c:	8fa9                	xor	x15,x15,x10
8000028e:	8b85                	andi	x15,x15,1
80000290:	00375693          	srli	x13,x14,0x3
80000294:	8105                	srli	x10,x10,0x1
80000296:	c791                	beqz	x15,800002a2 <crcu16+0x100>
80000298:	77e9                	lui	x15,0xffffa
8000029a:	0785                	addi	x15,x15,1
8000029c:	8d3d                	xor	x10,x10,x15
8000029e:	0542                	slli	x10,x10,0x10
800002a0:	8141                	srli	x10,x10,0x10
800002a2:	8ea9                	xor	x13,x13,x10
800002a4:	8a85                	andi	x13,x13,1
800002a6:	00475793          	srli	x15,x14,0x4
800002aa:	8105                	srli	x10,x10,0x1
800002ac:	c691                	beqz	x13,800002b8 <crcu16+0x116>
800002ae:	76e9                	lui	x13,0xffffa
800002b0:	0685                	addi	x13,x13,1
800002b2:	8d35                	xor	x10,x10,x13
800002b4:	0542                	slli	x10,x10,0x10
800002b6:	8141                	srli	x10,x10,0x10
800002b8:	8fa9                	xor	x15,x15,x10
800002ba:	8b85                	andi	x15,x15,1
800002bc:	00575693          	srli	x13,x14,0x5
800002c0:	8105                	srli	x10,x10,0x1
800002c2:	c791                	beqz	x15,800002ce <crcu16+0x12c>
800002c4:	77e9                	lui	x15,0xffffa
800002c6:	0785                	addi	x15,x15,1
800002c8:	8d3d                	xor	x10,x10,x15
800002ca:	0542                	slli	x10,x10,0x10
800002cc:	8141                	srli	x10,x10,0x10
800002ce:	8ea9                	xor	x13,x13,x10
800002d0:	8a85                	andi	x13,x13,1
800002d2:	00675793          	srli	x15,x14,0x6
800002d6:	8105                	srli	x10,x10,0x1
800002d8:	c691                	beqz	x13,800002e4 <crcu16+0x142>
800002da:	76e9                	lui	x13,0xffffa
800002dc:	0685                	addi	x13,x13,1
800002de:	8d35                	xor	x10,x10,x13
800002e0:	0542                	slli	x10,x10,0x10
800002e2:	8141                	srli	x10,x10,0x10
800002e4:	8fa9                	xor	x15,x15,x10
800002e6:	8b85                	andi	x15,x15,1
800002e8:	831d                	srli	x14,x14,0x7
800002ea:	8105                	srli	x10,x10,0x1
800002ec:	c791                	beqz	x15,800002f8 <crcu16+0x156>
800002ee:	77e9                	lui	x15,0xffffa
800002f0:	0785                	addi	x15,x15,1
800002f2:	8d3d                	xor	x10,x10,x15
800002f4:	0542                	slli	x10,x10,0x10
800002f6:	8141                	srli	x10,x10,0x10
800002f8:	00157793          	andi	x15,x10,1
800002fc:	8105                	srli	x10,x10,0x1
800002fe:	00e78763          	beq	x15,x14,8000030c <crcu16+0x16a>
80000302:	77e9                	lui	x15,0xffffa
80000304:	0785                	addi	x15,x15,1
80000306:	8d3d                	xor	x10,x10,x15
80000308:	0542                	slli	x10,x10,0x10
8000030a:	8141                	srli	x10,x10,0x10
8000030c:	8082                	ret

8000030e <core_state_transition>:
8000030e:	411c                	lw	x15,0(x10)
80000310:	0007c683          	lbu	x13,0(x15) # ffffa000 <_stack_top+0x3fffa000>
80000314:	22068263          	beqz	x13,80000538 <core_state_transition+0x22a>
80000318:	02c00613          	li	x12,44
8000031c:	00178713          	addi	x14,x15,1
80000320:	1ec68e63          	beq	x13,x12,8000051c <core_state_transition+0x20e>
80000324:	0005a803          	lw	x16,0(x11)
80000328:	fd068893          	addi	x17,x13,-48 # ffff9fd0 <_stack_top+0x3fff9fd0>
8000032c:	0ff8f893          	andi	x17,x17,255
80000330:	4325                	li	x6,9
80000332:	0805                	addi	x16,x16,1
80000334:	03136f63          	bltu	x6,x17,80000372 <core_state_transition+0x64>
80000338:	0105a023          	sw	x16,0(x11)
8000033c:	0017c683          	lbu	x13,1(x15)
80000340:	c6cd                	beqz	x13,800003ea <core_state_transition+0xdc>
80000342:	0789                	addi	x15,x15,2
80000344:	0ac68263          	beq	x13,x12,800003e8 <core_state_transition+0xda>
80000348:	02e00813          	li	x16,46
8000034c:	48a5                	li	x17,9
8000034e:	02c00313          	li	x6,44
80000352:	fd068613          	addi	x12,x13,-48
80000356:	0ff67613          	andi	x12,x12,255
8000035a:	09068a63          	beq	x13,x16,800003ee <core_state_transition+0xe0>
8000035e:	18c8f263          	bleu	x12,x17,800004e2 <core_state_transition+0x1d4>
80000362:	4994                	lw	x13,16(x11)
80000364:	873e                	mv	x14,x15
80000366:	4785                	li	x15,1
80000368:	0685                	addi	x13,x13,1
8000036a:	c994                	sw	x13,16(x11)
8000036c:	c118                	sw	x14,0(x10)
8000036e:	853e                	mv	x10,x15
80000370:	8082                	ret
80000372:	02b00893          	li	x17,43
80000376:	03168363          	beq	x13,x17,8000039c <core_state_transition+0x8e>
8000037a:	02d00893          	li	x17,45
8000037e:	01168f63          	beq	x13,x17,8000039c <core_state_transition+0x8e>
80000382:	02e00893          	li	x17,46
80000386:	19168d63          	beq	x13,x17,80000520 <core_state_transition+0x212>
8000038a:	41d4                	lw	x13,4(x11)
8000038c:	0105a023          	sw	x16,0(x11)
80000390:	4785                	li	x15,1
80000392:	0685                	addi	x13,x13,1
80000394:	c1d4                	sw	x13,4(x11)
80000396:	c118                	sw	x14,0(x10)
80000398:	853e                	mv	x10,x15
8000039a:	8082                	ret
8000039c:	0105a023          	sw	x16,0(x11)
800003a0:	0017c803          	lbu	x16,1(x15)
800003a4:	18080d63          	beqz	x16,8000053e <core_state_transition+0x230>
800003a8:	00278713          	addi	x14,x15,2
800003ac:	18c80963          	beq	x16,x12,8000053e <core_state_transition+0x230>
800003b0:	4590                	lw	x12,8(x11)
800003b2:	fd080693          	addi	x13,x16,-48
800003b6:	0ff6f693          	andi	x13,x13,255
800003ba:	48a5                	li	x17,9
800003bc:	0605                	addi	x12,x12,1
800003be:	00d8fb63          	bleu	x13,x17,800003d4 <core_state_transition+0xc6>
800003c2:	02e00693          	li	x13,46
800003c6:	12d80f63          	beq	x16,x13,80000504 <core_state_transition+0x1f6>
800003ca:	c590                	sw	x12,8(x11)
800003cc:	4785                	li	x15,1
800003ce:	c118                	sw	x14,0(x10)
800003d0:	853e                	mv	x10,x15
800003d2:	8082                	ret
800003d4:	c590                	sw	x12,8(x11)
800003d6:	0027c683          	lbu	x13,2(x15)
800003da:	ca81                	beqz	x13,800003ea <core_state_transition+0xdc>
800003dc:	02c00613          	li	x12,44
800003e0:	00170793          	addi	x15,x14,1 # ffffa001 <_stack_top+0x3fffa001>
800003e4:	f6c692e3          	bne	x13,x12,80000348 <core_state_transition+0x3a>
800003e8:	873e                	mv	x14,x15
800003ea:	4791                	li	x15,4
800003ec:	b741                	j	8000036c <core_state_transition+0x5e>
800003ee:	4994                	lw	x13,16(x11)
800003f0:	0685                	addi	x13,x13,1
800003f2:	c994                	sw	x13,16(x11)
800003f4:	00174683          	lbu	x13,1(x14)
800003f8:	16068063          	beqz	x13,80000558 <core_state_transition+0x24a>
800003fc:	02c00713          	li	x14,44
80000400:	00178813          	addi	x16,x15,1
80000404:	12e68763          	beq	x13,x14,80000532 <core_state_transition+0x224>
80000408:	fd068713          	addi	x14,x13,-48
8000040c:	04500613          	li	x12,69
80000410:	0df6f693          	andi	x13,x13,223
80000414:	48a5                	li	x17,9
80000416:	02c00313          	li	x6,44
8000041a:	0ff77713          	andi	x14,x14,255
8000041e:	02c68663          	beq	x13,x12,8000044a <core_state_transition+0x13c>
80000422:	0ce8eb63          	bltu	x17,x14,800004f8 <core_state_transition+0x1ea>
80000426:	0017c683          	lbu	x13,1(x15)
8000042a:	00180713          	addi	x14,x16,1
8000042e:	87c2                	mv	x15,x16
80000430:	10068163          	beqz	x13,80000532 <core_state_transition+0x224>
80000434:	10668063          	beq	x13,x6,80000534 <core_state_transition+0x226>
80000438:	883a                	mv	x16,x14
8000043a:	fd068713          	addi	x14,x13,-48
8000043e:	0df6f693          	andi	x13,x13,223
80000442:	0ff77713          	andi	x14,x14,255
80000446:	fcc69ee3          	bne	x13,x12,80000422 <core_state_transition+0x114>
8000044a:	49d8                	lw	x14,20(x11)
8000044c:	0705                	addi	x14,x14,1
8000044e:	c9d8                	sw	x14,20(x11)
80000450:	0017c783          	lbu	x15,1(x15)
80000454:	c7fd                	beqz	x15,80000542 <core_state_transition+0x234>
80000456:	02c00613          	li	x12,44
8000045a:	00180713          	addi	x14,x16,1
8000045e:	0ec78363          	beq	x15,x12,80000544 <core_state_transition+0x236>
80000462:	45d4                	lw	x13,12(x11)
80000464:	fd578793          	addi	x15,x15,-43
80000468:	0fd7f793          	andi	x15,x15,253
8000046c:	0685                	addi	x13,x13,1
8000046e:	c5d4                	sw	x13,12(x11)
80000470:	c789                	beqz	x15,8000047a <core_state_transition+0x16c>
80000472:	4785                	li	x15,1
80000474:	c118                	sw	x14,0(x10)
80000476:	853e                	mv	x10,x15
80000478:	8082                	ret
8000047a:	00184783          	lbu	x15,1(x16)
8000047e:	c7e9                	beqz	x15,80000548 <core_state_transition+0x23a>
80000480:	00280693          	addi	x13,x16,2
80000484:	0cc78463          	beq	x15,x12,8000054c <core_state_transition+0x23e>
80000488:	4d98                	lw	x14,24(x11)
8000048a:	fd078793          	addi	x15,x15,-48
8000048e:	0ff7f793          	andi	x15,x15,255
80000492:	0705                	addi	x14,x14,1
80000494:	48a5                	li	x17,9
80000496:	cd98                	sw	x14,24(x11)
80000498:	00f8f563          	bleu	x15,x17,800004a2 <core_state_transition+0x194>
8000049c:	8736                	mv	x14,x13
8000049e:	4785                	li	x15,1
800004a0:	bfd1                	j	80000474 <core_state_transition+0x166>
800004a2:	00284783          	lbu	x15,2(x16)
800004a6:	c7d5                	beqz	x15,80000552 <core_state_transition+0x244>
800004a8:	00380713          	addi	x14,x16,3
800004ac:	02c78963          	beq	x15,x12,800004de <core_state_transition+0x1d0>
800004b0:	4625                	li	x12,9
800004b2:	02c00893          	li	x17,44
800004b6:	fd078793          	addi	x15,x15,-48
800004ba:	0ff7f793          	andi	x15,x15,255
800004be:	00f67763          	bleu	x15,x12,800004cc <core_state_transition+0x1be>
800004c2:	41d4                	lw	x13,4(x11)
800004c4:	4785                	li	x15,1
800004c6:	0685                	addi	x13,x13,1
800004c8:	c1d4                	sw	x13,4(x11)
800004ca:	b54d                	j	8000036c <core_state_transition+0x5e>
800004cc:	0016c783          	lbu	x15,1(x13)
800004d0:	00170813          	addi	x16,x14,1
800004d4:	86ba                	mv	x13,x14
800004d6:	c781                	beqz	x15,800004de <core_state_transition+0x1d0>
800004d8:	8742                	mv	x14,x16
800004da:	fd179ee3          	bne	x15,x17,800004b6 <core_state_transition+0x1a8>
800004de:	479d                	li	x15,7
800004e0:	b571                	j	8000036c <core_state_transition+0x5e>
800004e2:	00174683          	lbu	x13,1(x14)
800004e6:	00178613          	addi	x12,x15,1
800004ea:	873e                	mv	x14,x15
800004ec:	ee068ee3          	beqz	x13,800003e8 <core_state_transition+0xda>
800004f0:	06668763          	beq	x13,x6,8000055e <core_state_transition+0x250>
800004f4:	87b2                	mv	x15,x12
800004f6:	bdb1                	j	80000352 <core_state_transition+0x44>
800004f8:	49d4                	lw	x13,20(x11)
800004fa:	8742                	mv	x14,x16
800004fc:	4785                	li	x15,1
800004fe:	0685                	addi	x13,x13,1
80000500:	c9d4                	sw	x13,20(x11)
80000502:	b5ad                	j	8000036c <core_state_transition+0x5e>
80000504:	c590                	sw	x12,8(x11)
80000506:	0027c683          	lbu	x13,2(x15)
8000050a:	c68d                	beqz	x13,80000534 <core_state_transition+0x226>
8000050c:	02c00793          	li	x15,44
80000510:	00170813          	addi	x16,x14,1
80000514:	00f68f63          	beq	x13,x15,80000532 <core_state_transition+0x224>
80000518:	87ba                	mv	x15,x14
8000051a:	b5fd                	j	80000408 <core_state_transition+0xfa>
8000051c:	4781                	li	x15,0
8000051e:	b5b9                	j	8000036c <core_state_transition+0x5e>
80000520:	0105a023          	sw	x16,0(x11)
80000524:	0017c683          	lbu	x13,1(x15)
80000528:	c691                	beqz	x13,80000534 <core_state_transition+0x226>
8000052a:	00278813          	addi	x16,x15,2
8000052e:	fec695e3          	bne	x13,x12,80000518 <core_state_transition+0x20a>
80000532:	8742                	mv	x14,x16
80000534:	4795                	li	x15,5
80000536:	bd1d                	j	8000036c <core_state_transition+0x5e>
80000538:	873e                	mv	x14,x15
8000053a:	4781                	li	x15,0
8000053c:	bd05                	j	8000036c <core_state_transition+0x5e>
8000053e:	4789                	li	x15,2
80000540:	b535                	j	8000036c <core_state_transition+0x5e>
80000542:	8742                	mv	x14,x16
80000544:	478d                	li	x15,3
80000546:	b51d                	j	8000036c <core_state_transition+0x5e>
80000548:	4799                	li	x15,6
8000054a:	b50d                	j	8000036c <core_state_transition+0x5e>
8000054c:	8736                	mv	x14,x13
8000054e:	4799                	li	x15,6
80000550:	bd31                	j	8000036c <core_state_transition+0x5e>
80000552:	8736                	mv	x14,x13
80000554:	479d                	li	x15,7
80000556:	bd19                	j	8000036c <core_state_transition+0x5e>
80000558:	873e                	mv	x14,x15
8000055a:	4795                	li	x15,5
8000055c:	bd01                	j	8000036c <core_state_transition+0x5e>
8000055e:	8732                	mv	x14,x12
80000560:	4791                	li	x15,4
80000562:	b529                	j	8000036c <core_state_transition+0x5e>

80000564 <calc_func>:
80000564:	00051703          	lh	x14,0(x10)
80000568:	7131                	addi	x2,x2,-192
8000056a:	df06                	sw	x1,188(x2)
8000056c:	40775793          	srai	x15,x14,0x7
80000570:	8b85                	andi	x15,x15,1
80000572:	dd22                	sw	x8,184(x2)
80000574:	db26                	sw	x9,180(x2)
80000576:	d94a                	sw	x18,176(x2)
80000578:	d74e                	sw	x19,172(x2)
8000057a:	d552                	sw	x20,168(x2)
8000057c:	d356                	sw	x21,164(x2)
8000057e:	d15a                	sw	x22,160(x2)
80000580:	cf5e                	sw	x23,156(x2)
80000582:	cd62                	sw	x24,152(x2)
80000584:	cb66                	sw	x25,148(x2)
80000586:	c96a                	sw	x26,144(x2)
80000588:	c76e                	sw	x27,140(x2)
8000058a:	c83a                	sw	x14,16(x2)
8000058c:	ca3e                	sw	x15,20(x2)
8000058e:	1a079b63          	bnez	x15,80000744 <calc_func+0x1e0>
80000592:	40375793          	srai	x15,x14,0x3
80000596:	8bbd                	andi	x15,x15,15
80000598:	00479493          	slli	x9,x15,0x4
8000059c:	cc2e                	sw	x11,24(x2)
8000059e:	d22a                	sw	x10,36(x2)
800005a0:	8b1d                	andi	x14,x14,7
800005a2:	8cdd                	or	x9,x9,x15
800005a4:	0385d403          	lhu	x8,56(x11)
800005a8:	4a0707e3          	beqz	x14,80001256 <calc_func+0xcf2>
800005ac:	4785                	li	x15,1
800005ae:	1af70c63          	beq	x14,x15,80000766 <calc_func+0x202>
800005b2:	4742                	lw	x14,16(x2)
800005b4:	00e44633          	xor	x12,x8,x14
800005b8:	0ff77693          	andi	x13,x14,255
800005bc:	01071593          	slli	x11,x14,0x10
800005c0:	8a05                	andi	x12,x12,1
800005c2:	81c1                	srli	x11,x11,0x10
800005c4:	0016d513          	srli	x10,x13,0x1
800005c8:	00145793          	srli	x15,x8,0x1
800005cc:	c611                	beqz	x12,800005d8 <calc_func+0x74>
800005ce:	7669                	lui	x12,0xffffa
800005d0:	0605                	addi	x12,x12,1
800005d2:	8fb1                	xor	x15,x15,x12
800005d4:	07c2                	slli	x15,x15,0x10
800005d6:	83c1                	srli	x15,x15,0x10
800005d8:	8d3d                	xor	x10,x10,x15
800005da:	8905                	andi	x10,x10,1
800005dc:	0026d613          	srli	x12,x13,0x2
800005e0:	8385                	srli	x15,x15,0x1
800005e2:	c511                	beqz	x10,800005ee <calc_func+0x8a>
800005e4:	7569                	lui	x10,0xffffa
800005e6:	0505                	addi	x10,x10,1
800005e8:	8fa9                	xor	x15,x15,x10
800005ea:	07c2                	slli	x15,x15,0x10
800005ec:	83c1                	srli	x15,x15,0x10
800005ee:	8e3d                	xor	x12,x12,x15
800005f0:	8a05                	andi	x12,x12,1
800005f2:	0036d513          	srli	x10,x13,0x3
800005f6:	8385                	srli	x15,x15,0x1
800005f8:	c611                	beqz	x12,80000604 <calc_func+0xa0>
800005fa:	7669                	lui	x12,0xffffa
800005fc:	0605                	addi	x12,x12,1
800005fe:	8fb1                	xor	x15,x15,x12
80000600:	07c2                	slli	x15,x15,0x10
80000602:	83c1                	srli	x15,x15,0x10
80000604:	8d3d                	xor	x10,x10,x15
80000606:	8905                	andi	x10,x10,1
80000608:	0046d613          	srli	x12,x13,0x4
8000060c:	8385                	srli	x15,x15,0x1
8000060e:	c511                	beqz	x10,8000061a <calc_func+0xb6>
80000610:	7569                	lui	x10,0xffffa
80000612:	0505                	addi	x10,x10,1
80000614:	8fa9                	xor	x15,x15,x10
80000616:	07c2                	slli	x15,x15,0x10
80000618:	83c1                	srli	x15,x15,0x10
8000061a:	8e3d                	xor	x12,x12,x15
8000061c:	8a05                	andi	x12,x12,1
8000061e:	0056d513          	srli	x10,x13,0x5
80000622:	8385                	srli	x15,x15,0x1
80000624:	c611                	beqz	x12,80000630 <calc_func+0xcc>
80000626:	7669                	lui	x12,0xffffa
80000628:	0605                	addi	x12,x12,1
8000062a:	8fb1                	xor	x15,x15,x12
8000062c:	07c2                	slli	x15,x15,0x10
8000062e:	83c1                	srli	x15,x15,0x10
80000630:	8d3d                	xor	x10,x10,x15
80000632:	8905                	andi	x10,x10,1
80000634:	0066d613          	srli	x12,x13,0x6
80000638:	8385                	srli	x15,x15,0x1
8000063a:	c511                	beqz	x10,80000646 <calc_func+0xe2>
8000063c:	7569                	lui	x10,0xffffa
8000063e:	0505                	addi	x10,x10,1
80000640:	8fa9                	xor	x15,x15,x10
80000642:	07c2                	slli	x15,x15,0x10
80000644:	83c1                	srli	x15,x15,0x10
80000646:	8e3d                	xor	x12,x12,x15
80000648:	8a05                	andi	x12,x12,1
8000064a:	829d                	srli	x13,x13,0x7
8000064c:	8385                	srli	x15,x15,0x1
8000064e:	c611                	beqz	x12,8000065a <calc_func+0xf6>
80000650:	7669                	lui	x12,0xffffa
80000652:	0605                	addi	x12,x12,1
80000654:	8fb1                	xor	x15,x15,x12
80000656:	07c2                	slli	x15,x15,0x10
80000658:	83c1                	srli	x15,x15,0x10
8000065a:	0017f613          	andi	x12,x15,1
8000065e:	8385                	srli	x15,x15,0x1
80000660:	00d60763          	beq	x12,x13,8000066e <calc_func+0x10a>
80000664:	76e9                	lui	x13,0xffffa
80000666:	0685                	addi	x13,x13,1
80000668:	8fb5                	xor	x15,x15,x13
8000066a:	07c2                	slli	x15,x15,0x10
8000066c:	83c1                	srli	x15,x15,0x10
8000066e:	0085d693          	srli	x13,x11,0x8
80000672:	00f6c633          	xor	x12,x13,x15
80000676:	8a05                	andi	x12,x12,1
80000678:	0ff6f693          	andi	x13,x13,255
8000067c:	0016d593          	srli	x11,x13,0x1
80000680:	8385                	srli	x15,x15,0x1
80000682:	c611                	beqz	x12,8000068e <calc_func+0x12a>
80000684:	7669                	lui	x12,0xffffa
80000686:	0605                	addi	x12,x12,1
80000688:	8fb1                	xor	x15,x15,x12
8000068a:	07c2                	slli	x15,x15,0x10
8000068c:	83c1                	srli	x15,x15,0x10
8000068e:	8dbd                	xor	x11,x11,x15
80000690:	8985                	andi	x11,x11,1
80000692:	0026d613          	srli	x12,x13,0x2
80000696:	8385                	srli	x15,x15,0x1
80000698:	c591                	beqz	x11,800006a4 <calc_func+0x140>
8000069a:	75e9                	lui	x11,0xffffa
8000069c:	0585                	addi	x11,x11,1
8000069e:	8fad                	xor	x15,x15,x11
800006a0:	07c2                	slli	x15,x15,0x10
800006a2:	83c1                	srli	x15,x15,0x10
800006a4:	8e3d                	xor	x12,x12,x15
800006a6:	8a05                	andi	x12,x12,1
800006a8:	0036d593          	srli	x11,x13,0x3
800006ac:	8385                	srli	x15,x15,0x1
800006ae:	c611                	beqz	x12,800006ba <calc_func+0x156>
800006b0:	7669                	lui	x12,0xffffa
800006b2:	0605                	addi	x12,x12,1
800006b4:	8fb1                	xor	x15,x15,x12
800006b6:	07c2                	slli	x15,x15,0x10
800006b8:	83c1                	srli	x15,x15,0x10
800006ba:	8dbd                	xor	x11,x11,x15
800006bc:	8985                	andi	x11,x11,1
800006be:	0046d613          	srli	x12,x13,0x4
800006c2:	8385                	srli	x15,x15,0x1
800006c4:	c591                	beqz	x11,800006d0 <calc_func+0x16c>
800006c6:	75e9                	lui	x11,0xffffa
800006c8:	0585                	addi	x11,x11,1
800006ca:	8fad                	xor	x15,x15,x11
800006cc:	07c2                	slli	x15,x15,0x10
800006ce:	83c1                	srli	x15,x15,0x10
800006d0:	8e3d                	xor	x12,x12,x15
800006d2:	8a05                	andi	x12,x12,1
800006d4:	0056d593          	srli	x11,x13,0x5
800006d8:	8385                	srli	x15,x15,0x1
800006da:	c611                	beqz	x12,800006e6 <calc_func+0x182>
800006dc:	7669                	lui	x12,0xffffa
800006de:	0605                	addi	x12,x12,1
800006e0:	8fb1                	xor	x15,x15,x12
800006e2:	07c2                	slli	x15,x15,0x10
800006e4:	83c1                	srli	x15,x15,0x10
800006e6:	8dbd                	xor	x11,x11,x15
800006e8:	8985                	andi	x11,x11,1
800006ea:	0066d613          	srli	x12,x13,0x6
800006ee:	8385                	srli	x15,x15,0x1
800006f0:	c591                	beqz	x11,800006fc <calc_func+0x198>
800006f2:	75e9                	lui	x11,0xffffa
800006f4:	0585                	addi	x11,x11,1
800006f6:	8fad                	xor	x15,x15,x11
800006f8:	07c2                	slli	x15,x15,0x10
800006fa:	83c1                	srli	x15,x15,0x10
800006fc:	8e3d                	xor	x12,x12,x15
800006fe:	8a05                	andi	x12,x12,1
80000700:	829d                	srli	x13,x13,0x7
80000702:	8385                	srli	x15,x15,0x1
80000704:	c611                	beqz	x12,80000710 <calc_func+0x1ac>
80000706:	7669                	lui	x12,0xffffa
80000708:	0605                	addi	x12,x12,1
8000070a:	8fb1                	xor	x15,x15,x12
8000070c:	07c2                	slli	x15,x15,0x10
8000070e:	83c1                	srli	x15,x15,0x10
80000710:	0017f613          	andi	x12,x15,1
80000714:	8385                	srli	x15,x15,0x1
80000716:	00d60763          	beq	x12,x13,80000724 <calc_func+0x1c0>
8000071a:	76e9                	lui	x13,0xffffa
8000071c:	0685                	addi	x13,x13,1
8000071e:	8fb5                	xor	x15,x15,x13
80000720:	07c2                	slli	x15,x15,0x10
80000722:	83c1                	srli	x15,x15,0x10
80000724:	46c2                	lw	x13,16(x2)
80000726:	07f77513          	andi	x10,x14,127
8000072a:	f006fc13          	andi	x24,x13,-256
8000072e:	46e2                	lw	x13,24(x2)
80000730:	080c6713          	ori	x14,x24,128
80000734:	02f69c23          	sh	x15,56(x13) # ffffa038 <_stack_top+0x3fffa038>
80000738:	00e567b3          	or	x15,x10,x14
8000073c:	5712                	lw	x14,36(x2)
8000073e:	00f71023          	sh	x15,0(x14)
80000742:	a019                	j	80000748 <calc_func+0x1e4>
80000744:	07f77513          	andi	x10,x14,127
80000748:	50fa                	lw	x1,188(x2)
8000074a:	546a                	lw	x8,184(x2)
8000074c:	54da                	lw	x9,180(x2)
8000074e:	594a                	lw	x18,176(x2)
80000750:	59ba                	lw	x19,172(x2)
80000752:	5a2a                	lw	x20,168(x2)
80000754:	5a9a                	lw	x21,164(x2)
80000756:	5b0a                	lw	x22,160(x2)
80000758:	4bfa                	lw	x23,156(x2)
8000075a:	4c6a                	lw	x24,152(x2)
8000075c:	4cda                	lw	x25,148(x2)
8000075e:	4d4a                	lw	x26,144(x2)
80000760:	4dba                	lw	x27,140(x2)
80000762:	6129                	addi	x2,x2,192
80000764:	8082                	ret
80000766:	59d8                	lw	x14,52(x11)
80000768:	599c                	lw	x15,48(x11)
8000076a:	0285ab83          	lw	x23,40(x11) # ffffa028 <_stack_top+0x3fffa028>
8000076e:	d03a                	sw	x14,32(x2)
80000770:	55d8                	lw	x14,44(x11)
80000772:	7a7d                	lui	x20,0xfffff
80000774:	01049b13          	slli	x22,x9,0x10
80000778:	d43a                	sw	x14,40(x2)
8000077a:	c23e                	sw	x15,4(x2)
8000077c:	0144ea33          	or	x20,x9,x20
80000780:	010b5b13          	srli	x22,x22,0x10
80000784:	000b9463          	bnez	x23,8000078c <calc_func+0x228>
80000788:	1980106f          	j	80001920 <calc_func+0x13bc>
8000078c:	87ba                	mv	x15,x14
8000078e:	001b9d13          	slli	x26,x23,0x1
80000792:	8dba                	mv	x27,x14
80000794:	4a81                	li	x21,0
80000796:	00fd0633          	add	x12,x26,x15
8000079a:	0007d683          	lhu	x13,0(x15)
8000079e:	0789                	addi	x15,x15,2
800007a0:	96da                	add	x13,x13,x22
800007a2:	fed79f23          	sh	x13,-2(x15)
800007a6:	fec79ae3          	bne	x15,x12,8000079a <calc_func+0x236>
800007aa:	0a85                	addi	x21,x21,1
800007ac:	ff5b95e3          	bne	x23,x21,80000796 <calc_func+0x232>
800007b0:	5c82                	lw	x25,32(x2)
800007b2:	002b9793          	slli	x15,x23,0x2
800007b6:	c03e                	sw	x15,0(x2)
800007b8:	4981                	li	x19,0
800007ba:	01bd0933          	add	x18,x26,x27
800007be:	8c66                	mv	x24,x25
800007c0:	000d9503          	lh	x10,0(x27)
800007c4:	85a6                	mv	x11,x9
800007c6:	0d89                	addi	x27,x27,2
800007c8:	00002097          	auipc	x1,0x2
800007cc:	f04080e7          	jalr	-252(x1) # 800026cc <__mulsi3>
800007d0:	00ac2023          	sw	x10,0(x24)
800007d4:	0c11                	addi	x24,x24,4
800007d6:	ff2d95e3          	bne	x27,x18,800007c0 <calc_func+0x25c>
800007da:	4782                	lw	x15,0(x2)
800007dc:	0985                	addi	x19,x19,1
800007de:	9cbe                	add	x25,x25,x15
800007e0:	fd3a9de3          	bne	x21,x19,800007ba <calc_func+0x256>
800007e4:	873e                	mv	x14,x15
800007e6:	5782                	lw	x15,32(x2)
800007e8:	41300333          	neg	x6,x19
800007ec:	00231e13          	slli	x28,x6,0x2
800007f0:	00e78db3          	add	x27,x15,x14
800007f4:	4581                	li	x11,0
800007f6:	4781                	li	x15,0
800007f8:	4701                	li	x14,0
800007fa:	4801                	li	x16,0
800007fc:	030e                	slli	x6,x6,0x3
800007fe:	01be08b3          	add	x17,x28,x27
80000802:	8646                	mv	x12,x17
80000804:	a039                	j	80000812 <calc_func+0x2ae>
80000806:	07c2                	slli	x15,x15,0x10
80000808:	0611                	addi	x12,x12,4
8000080a:	87c1                	srai	x15,x15,0x10
8000080c:	8736                	mv	x14,x13
8000080e:	02cd8563          	beq	x27,x12,80000838 <calc_func+0x2d4>
80000812:	4214                	lw	x13,0(x12)
80000814:	07c2                	slli	x15,x15,0x10
80000816:	83c1                	srli	x15,x15,0x10
80000818:	00d72733          	slt	x14,x14,x13
8000081c:	95b6                	add	x11,x11,x13
8000081e:	00a78513          	addi	x10,x15,10
80000822:	97ba                	add	x15,x15,x14
80000824:	feba51e3          	ble	x11,x20,80000806 <calc_func+0x2a2>
80000828:	01051793          	slli	x15,x10,0x10
8000082c:	0611                	addi	x12,x12,4
8000082e:	87c1                	srai	x15,x15,0x10
80000830:	4581                	li	x11,0
80000832:	8736                	mv	x14,x13
80000834:	fccd9fe3          	bne	x27,x12,80000812 <calc_func+0x2ae>
80000838:	0805                	addi	x16,x16,1
8000083a:	40688db3          	sub	x27,x17,x6
8000083e:	fd0990e3          	bne	x19,x16,800007fe <calc_func+0x29a>
80000842:	0ff7f693          	andi	x13,x15,255
80000846:	0016f613          	andi	x12,x13,1
8000084a:	6729                	lui	x14,0xa
8000084c:	40c00633          	neg	x12,x12
80000850:	0705                	addi	x14,x14,1
80000852:	8f71                	and	x14,x14,x12
80000854:	0016d613          	srli	x12,x13,0x1
80000858:	8e39                	xor	x12,x12,x14
8000085a:	07c2                	slli	x15,x15,0x10
8000085c:	83c1                	srli	x15,x15,0x10
8000085e:	8a05                	andi	x12,x12,1
80000860:	83a1                	srli	x15,x15,0x8
80000862:	8289                	srli	x13,x13,0x2
80000864:	8305                	srli	x14,x14,0x1
80000866:	c611                	beqz	x12,80000872 <calc_func+0x30e>
80000868:	7669                	lui	x12,0xffffa
8000086a:	0605                	addi	x12,x12,1
8000086c:	8f31                	xor	x14,x14,x12
8000086e:	0742                	slli	x14,x14,0x10
80000870:	8341                	srli	x14,x14,0x10
80000872:	00e6c633          	xor	x12,x13,x14
80000876:	8a05                	andi	x12,x12,1
80000878:	0016d593          	srli	x11,x13,0x1
8000087c:	8305                	srli	x14,x14,0x1
8000087e:	c611                	beqz	x12,8000088a <calc_func+0x326>
80000880:	7669                	lui	x12,0xffffa
80000882:	0605                	addi	x12,x12,1
80000884:	8f31                	xor	x14,x14,x12
80000886:	0742                	slli	x14,x14,0x10
80000888:	8341                	srli	x14,x14,0x10
8000088a:	8db9                	xor	x11,x11,x14
8000088c:	8985                	andi	x11,x11,1
8000088e:	0026d613          	srli	x12,x13,0x2
80000892:	00175c93          	srli	x25,x14,0x1
80000896:	c981                	beqz	x11,800008a6 <calc_func+0x342>
80000898:	7769                	lui	x14,0xffffa
8000089a:	0705                	addi	x14,x14,1
8000089c:	00ecccb3          	xor	x25,x25,x14
800008a0:	0cc2                	slli	x25,x25,0x10
800008a2:	010cdc93          	srli	x25,x25,0x10
800008a6:	01964733          	xor	x14,x12,x25
800008aa:	8b05                	andi	x14,x14,1
800008ac:	0036d613          	srli	x12,x13,0x3
800008b0:	001cdc93          	srli	x25,x25,0x1
800008b4:	cb01                	beqz	x14,800008c4 <calc_func+0x360>
800008b6:	7769                	lui	x14,0xffffa
800008b8:	0705                	addi	x14,x14,1
800008ba:	00ecccb3          	xor	x25,x25,x14
800008be:	0cc2                	slli	x25,x25,0x10
800008c0:	010cdc93          	srli	x25,x25,0x10
800008c4:	01964633          	xor	x12,x12,x25
800008c8:	8a05                	andi	x12,x12,1
800008ca:	0046d713          	srli	x14,x13,0x4
800008ce:	001cdc93          	srli	x25,x25,0x1
800008d2:	ca01                	beqz	x12,800008e2 <calc_func+0x37e>
800008d4:	7669                	lui	x12,0xffffa
800008d6:	0605                	addi	x12,x12,1
800008d8:	00ccccb3          	xor	x25,x25,x12
800008dc:	0cc2                	slli	x25,x25,0x10
800008de:	010cdc93          	srli	x25,x25,0x10
800008e2:	01974733          	xor	x14,x14,x25
800008e6:	8b05                	andi	x14,x14,1
800008e8:	8295                	srli	x13,x13,0x5
800008ea:	001cdc93          	srli	x25,x25,0x1
800008ee:	cb01                	beqz	x14,800008fe <calc_func+0x39a>
800008f0:	7769                	lui	x14,0xffffa
800008f2:	0705                	addi	x14,x14,1
800008f4:	00ecccb3          	xor	x25,x25,x14
800008f8:	0cc2                	slli	x25,x25,0x10
800008fa:	010cdc93          	srli	x25,x25,0x10
800008fe:	001cf713          	andi	x14,x25,1
80000902:	001cdc93          	srli	x25,x25,0x1
80000906:	00d70963          	beq	x14,x13,80000918 <calc_func+0x3b4>
8000090a:	7769                	lui	x14,0xffffa
8000090c:	0705                	addi	x14,x14,1
8000090e:	00ecccb3          	xor	x25,x25,x14
80000912:	0cc2                	slli	x25,x25,0x10
80000914:	010cdc93          	srli	x25,x25,0x10
80000918:	00fcc733          	xor	x14,x25,x15
8000091c:	8b05                	andi	x14,x14,1
8000091e:	0017d693          	srli	x13,x15,0x1
80000922:	001cdc93          	srli	x25,x25,0x1
80000926:	cb01                	beqz	x14,80000936 <calc_func+0x3d2>
80000928:	7769                	lui	x14,0xffffa
8000092a:	0705                	addi	x14,x14,1
8000092c:	00ecccb3          	xor	x25,x25,x14
80000930:	0cc2                	slli	x25,x25,0x10
80000932:	010cdc93          	srli	x25,x25,0x10
80000936:	00dcc6b3          	xor	x13,x25,x13
8000093a:	8a85                	andi	x13,x13,1
8000093c:	0027d713          	srli	x14,x15,0x2
80000940:	001cdc93          	srli	x25,x25,0x1
80000944:	ca81                	beqz	x13,80000954 <calc_func+0x3f0>
80000946:	76e9                	lui	x13,0xffffa
80000948:	0685                	addi	x13,x13,1
8000094a:	00dcccb3          	xor	x25,x25,x13
8000094e:	0cc2                	slli	x25,x25,0x10
80000950:	010cdc93          	srli	x25,x25,0x10
80000954:	00ecc733          	xor	x14,x25,x14
80000958:	8b05                	andi	x14,x14,1
8000095a:	0037d693          	srli	x13,x15,0x3
8000095e:	001cdc93          	srli	x25,x25,0x1
80000962:	cb01                	beqz	x14,80000972 <calc_func+0x40e>
80000964:	7769                	lui	x14,0xffffa
80000966:	0705                	addi	x14,x14,1
80000968:	00ecccb3          	xor	x25,x25,x14
8000096c:	0cc2                	slli	x25,x25,0x10
8000096e:	010cdc93          	srli	x25,x25,0x10
80000972:	00dcc6b3          	xor	x13,x25,x13
80000976:	8a85                	andi	x13,x13,1
80000978:	0047d713          	srli	x14,x15,0x4
8000097c:	001cdc93          	srli	x25,x25,0x1
80000980:	ca81                	beqz	x13,80000990 <calc_func+0x42c>
80000982:	76e9                	lui	x13,0xffffa
80000984:	0685                	addi	x13,x13,1
80000986:	00dcccb3          	xor	x25,x25,x13
8000098a:	0cc2                	slli	x25,x25,0x10
8000098c:	010cdc93          	srli	x25,x25,0x10
80000990:	01974733          	xor	x14,x14,x25
80000994:	8b05                	andi	x14,x14,1
80000996:	0057d693          	srli	x13,x15,0x5
8000099a:	001cdc93          	srli	x25,x25,0x1
8000099e:	cb01                	beqz	x14,800009ae <calc_func+0x44a>
800009a0:	7769                	lui	x14,0xffffa
800009a2:	0705                	addi	x14,x14,1
800009a4:	00ecccb3          	xor	x25,x25,x14
800009a8:	0cc2                	slli	x25,x25,0x10
800009aa:	010cdc93          	srli	x25,x25,0x10
800009ae:	0196c6b3          	xor	x13,x13,x25
800009b2:	8a85                	andi	x13,x13,1
800009b4:	0067d713          	srli	x14,x15,0x6
800009b8:	001cdc93          	srli	x25,x25,0x1
800009bc:	ca81                	beqz	x13,800009cc <calc_func+0x468>
800009be:	76e9                	lui	x13,0xffffa
800009c0:	0685                	addi	x13,x13,1
800009c2:	00dcccb3          	xor	x25,x25,x13
800009c6:	0cc2                	slli	x25,x25,0x10
800009c8:	010cdc93          	srli	x25,x25,0x10
800009cc:	01974733          	xor	x14,x14,x25
800009d0:	8b05                	andi	x14,x14,1
800009d2:	839d                	srli	x15,x15,0x7
800009d4:	001cdc93          	srli	x25,x25,0x1
800009d8:	cb01                	beqz	x14,800009e8 <calc_func+0x484>
800009da:	7769                	lui	x14,0xffffa
800009dc:	0705                	addi	x14,x14,1
800009de:	00ecccb3          	xor	x25,x25,x14
800009e2:	0cc2                	slli	x25,x25,0x10
800009e4:	010cdc93          	srli	x25,x25,0x10
800009e8:	001cd693          	srli	x13,x25,0x1
800009ec:	001cf713          	andi	x14,x25,1
800009f0:	c036                	sw	x13,0(x2)
800009f2:	00f70a63          	beq	x14,x15,80000a06 <calc_func+0x4a2>
800009f6:	77e9                	lui	x15,0xffffa
800009f8:	0785                	addi	x15,x15,1
800009fa:	00f6ccb3          	xor	x25,x13,x15
800009fe:	010c9793          	slli	x15,x25,0x10
80000a02:	83c1                	srli	x15,x15,0x10
80000a04:	c03e                	sw	x15,0(x2)
80000a06:	720b89e3          	beqz	x23,80001938 <calc_func+0x13d4>
80000a0a:	5782                	lw	x15,32(x2)
80000a0c:	002b9a93          	slli	x21,x23,0x2
80000a10:	5922                	lw	x18,40(x2)
80000a12:	8cbe                	mv	x25,x15
80000a14:	9abe                	add	x21,x21,x15
80000a16:	4792                	lw	x15,4(x2)
80000a18:	001b9993          	slli	x19,x23,0x1
80000a1c:	013784b3          	add	x9,x15,x19
80000a20:	4d12                	lw	x26,4(x2)
80000a22:	8dca                	mv	x27,x18
80000a24:	4c01                	li	x24,0
80000a26:	000d1583          	lh	x11,0(x26)
80000a2a:	000d9503          	lh	x10,0(x27)
80000a2e:	0d09                	addi	x26,x26,2
80000a30:	0d89                	addi	x27,x27,2
80000a32:	00002097          	auipc	x1,0x2
80000a36:	c9a080e7          	jalr	-870(x1) # 800026cc <__mulsi3>
80000a3a:	9c2a                	add	x24,x24,x10
80000a3c:	ffa495e3          	bne	x9,x26,80000a26 <calc_func+0x4c2>
80000a40:	018ca023          	sw	x24,0(x25)
80000a44:	0c91                	addi	x25,x25,4
80000a46:	994e                	add	x18,x18,x19
80000a48:	fd5c9ce3          	bne	x25,x21,80000a20 <calc_func+0x4bc>
80000a4c:	41700e33          	neg	x28,x23
80000a50:	002e1e93          	slli	x29,x28,0x2
80000a54:	4781                	li	x15,0
80000a56:	4701                	li	x14,0
80000a58:	4581                	li	x11,0
80000a5a:	4881                	li	x17,0
80000a5c:	0e0e                	slli	x28,x28,0x3
80000a5e:	01dc8333          	add	x6,x25,x29
80000a62:	861a                	mv	x12,x6
80000a64:	86ba                	mv	x13,x14
80000a66:	a039                	j	80000a74 <calc_func+0x510>
80000a68:	07c2                	slli	x15,x15,0x10
80000a6a:	0611                	addi	x12,x12,4
80000a6c:	87c1                	srai	x15,x15,0x10
80000a6e:	86ba                	mv	x13,x14
80000a70:	03960563          	beq	x12,x25,80000a9a <calc_func+0x536>
80000a74:	4218                	lw	x14,0(x12)
80000a76:	07c2                	slli	x15,x15,0x10
80000a78:	83c1                	srli	x15,x15,0x10
80000a7a:	00e6a6b3          	slt	x13,x13,x14
80000a7e:	95ba                	add	x11,x11,x14
80000a80:	00a78513          	addi	x10,x15,10 # ffffa00a <_stack_top+0x3fffa00a>
80000a84:	97b6                	add	x15,x15,x13
80000a86:	feba51e3          	ble	x11,x20,80000a68 <calc_func+0x504>
80000a8a:	01051793          	slli	x15,x10,0x10
80000a8e:	0611                	addi	x12,x12,4
80000a90:	87c1                	srai	x15,x15,0x10
80000a92:	4581                	li	x11,0
80000a94:	86ba                	mv	x13,x14
80000a96:	fd961fe3          	bne	x12,x25,80000a74 <calc_func+0x510>
80000a9a:	0885                	addi	x17,x17,1
80000a9c:	41c30cb3          	sub	x25,x6,x28
80000aa0:	fb1b9fe3          	bne	x23,x17,80000a5e <calc_func+0x4fa>
80000aa4:	01079693          	slli	x13,x15,0x10
80000aa8:	82c1                	srli	x13,x13,0x10
80000aaa:	0ff7f793          	andi	x15,x15,255
80000aae:	82a1                	srli	x13,x13,0x8
80000ab0:	4702                	lw	x14,0(x2)
80000ab2:	0017d613          	srli	x12,x15,0x1
80000ab6:	00f745b3          	xor	x11,x14,x15
80000aba:	8985                	andi	x11,x11,1
80000abc:	8305                	srli	x14,x14,0x1
80000abe:	c591                	beqz	x11,80000aca <calc_func+0x566>
80000ac0:	75e9                	lui	x11,0xffffa
80000ac2:	0585                	addi	x11,x11,1
80000ac4:	8f2d                	xor	x14,x14,x11
80000ac6:	0742                	slli	x14,x14,0x10
80000ac8:	8341                	srli	x14,x14,0x10
80000aca:	8e39                	xor	x12,x12,x14
80000acc:	8a05                	andi	x12,x12,1
80000ace:	0027d593          	srli	x11,x15,0x2
80000ad2:	8305                	srli	x14,x14,0x1
80000ad4:	c611                	beqz	x12,80000ae0 <calc_func+0x57c>
80000ad6:	7669                	lui	x12,0xffffa
80000ad8:	0605                	addi	x12,x12,1
80000ada:	8f31                	xor	x14,x14,x12
80000adc:	0742                	slli	x14,x14,0x10
80000ade:	8341                	srli	x14,x14,0x10
80000ae0:	8db9                	xor	x11,x11,x14
80000ae2:	8985                	andi	x11,x11,1
80000ae4:	0037d613          	srli	x12,x15,0x3
80000ae8:	8305                	srli	x14,x14,0x1
80000aea:	c591                	beqz	x11,80000af6 <calc_func+0x592>
80000aec:	75e9                	lui	x11,0xffffa
80000aee:	0585                	addi	x11,x11,1
80000af0:	8f2d                	xor	x14,x14,x11
80000af2:	0742                	slli	x14,x14,0x10
80000af4:	8341                	srli	x14,x14,0x10
80000af6:	8e39                	xor	x12,x12,x14
80000af8:	8a05                	andi	x12,x12,1
80000afa:	0047d593          	srli	x11,x15,0x4
80000afe:	8305                	srli	x14,x14,0x1
80000b00:	c611                	beqz	x12,80000b0c <calc_func+0x5a8>
80000b02:	7669                	lui	x12,0xffffa
80000b04:	0605                	addi	x12,x12,1
80000b06:	8f31                	xor	x14,x14,x12
80000b08:	0742                	slli	x14,x14,0x10
80000b0a:	8341                	srli	x14,x14,0x10
80000b0c:	8db9                	xor	x11,x11,x14
80000b0e:	8985                	andi	x11,x11,1
80000b10:	0057d613          	srli	x12,x15,0x5
80000b14:	8305                	srli	x14,x14,0x1
80000b16:	c591                	beqz	x11,80000b22 <calc_func+0x5be>
80000b18:	75e9                	lui	x11,0xffffa
80000b1a:	0585                	addi	x11,x11,1
80000b1c:	8f2d                	xor	x14,x14,x11
80000b1e:	0742                	slli	x14,x14,0x10
80000b20:	8341                	srli	x14,x14,0x10
80000b22:	8e39                	xor	x12,x12,x14
80000b24:	8a05                	andi	x12,x12,1
80000b26:	0067d593          	srli	x11,x15,0x6
80000b2a:	8305                	srli	x14,x14,0x1
80000b2c:	c611                	beqz	x12,80000b38 <calc_func+0x5d4>
80000b2e:	7669                	lui	x12,0xffffa
80000b30:	0605                	addi	x12,x12,1
80000b32:	8f31                	xor	x14,x14,x12
80000b34:	0742                	slli	x14,x14,0x10
80000b36:	8341                	srli	x14,x14,0x10
80000b38:	8db9                	xor	x11,x11,x14
80000b3a:	8985                	andi	x11,x11,1
80000b3c:	0077d613          	srli	x12,x15,0x7
80000b40:	00175793          	srli	x15,x14,0x1
80000b44:	c591                	beqz	x11,80000b50 <calc_func+0x5ec>
80000b46:	7769                	lui	x14,0xffffa
80000b48:	0705                	addi	x14,x14,1
80000b4a:	8fb9                	xor	x15,x15,x14
80000b4c:	07c2                	slli	x15,x15,0x10
80000b4e:	83c1                	srli	x15,x15,0x10
80000b50:	0017f713          	andi	x14,x15,1
80000b54:	8385                	srli	x15,x15,0x1
80000b56:	00c70763          	beq	x14,x12,80000b64 <calc_func+0x600>
80000b5a:	7769                	lui	x14,0xffffa
80000b5c:	0705                	addi	x14,x14,1
80000b5e:	8fb9                	xor	x15,x15,x14
80000b60:	07c2                	slli	x15,x15,0x10
80000b62:	83c1                	srli	x15,x15,0x10
80000b64:	00d7c733          	xor	x14,x15,x13
80000b68:	8b05                	andi	x14,x14,1
80000b6a:	0016d613          	srli	x12,x13,0x1
80000b6e:	8385                	srli	x15,x15,0x1
80000b70:	c711                	beqz	x14,80000b7c <calc_func+0x618>
80000b72:	7769                	lui	x14,0xffffa
80000b74:	0705                	addi	x14,x14,1
80000b76:	8fb9                	xor	x15,x15,x14
80000b78:	07c2                	slli	x15,x15,0x10
80000b7a:	83c1                	srli	x15,x15,0x10
80000b7c:	8e3d                	xor	x12,x12,x15
80000b7e:	8a05                	andi	x12,x12,1
80000b80:	0026d713          	srli	x14,x13,0x2
80000b84:	8385                	srli	x15,x15,0x1
80000b86:	c611                	beqz	x12,80000b92 <calc_func+0x62e>
80000b88:	7669                	lui	x12,0xffffa
80000b8a:	0605                	addi	x12,x12,1
80000b8c:	8fb1                	xor	x15,x15,x12
80000b8e:	07c2                	slli	x15,x15,0x10
80000b90:	83c1                	srli	x15,x15,0x10
80000b92:	8f3d                	xor	x14,x14,x15
80000b94:	8b05                	andi	x14,x14,1
80000b96:	0036d613          	srli	x12,x13,0x3
80000b9a:	8385                	srli	x15,x15,0x1
80000b9c:	c711                	beqz	x14,80000ba8 <calc_func+0x644>
80000b9e:	7769                	lui	x14,0xffffa
80000ba0:	0705                	addi	x14,x14,1
80000ba2:	8fb9                	xor	x15,x15,x14
80000ba4:	07c2                	slli	x15,x15,0x10
80000ba6:	83c1                	srli	x15,x15,0x10
80000ba8:	8e3d                	xor	x12,x12,x15
80000baa:	8a05                	andi	x12,x12,1
80000bac:	0046d713          	srli	x14,x13,0x4
80000bb0:	8385                	srli	x15,x15,0x1
80000bb2:	c611                	beqz	x12,80000bbe <calc_func+0x65a>
80000bb4:	7669                	lui	x12,0xffffa
80000bb6:	0605                	addi	x12,x12,1
80000bb8:	8fb1                	xor	x15,x15,x12
80000bba:	07c2                	slli	x15,x15,0x10
80000bbc:	83c1                	srli	x15,x15,0x10
80000bbe:	8f3d                	xor	x14,x14,x15
80000bc0:	8b05                	andi	x14,x14,1
80000bc2:	0056d613          	srli	x12,x13,0x5
80000bc6:	8385                	srli	x15,x15,0x1
80000bc8:	c711                	beqz	x14,80000bd4 <calc_func+0x670>
80000bca:	7769                	lui	x14,0xffffa
80000bcc:	0705                	addi	x14,x14,1
80000bce:	8fb9                	xor	x15,x15,x14
80000bd0:	07c2                	slli	x15,x15,0x10
80000bd2:	83c1                	srli	x15,x15,0x10
80000bd4:	8e3d                	xor	x12,x12,x15
80000bd6:	8a05                	andi	x12,x12,1
80000bd8:	0066d713          	srli	x14,x13,0x6
80000bdc:	8385                	srli	x15,x15,0x1
80000bde:	c611                	beqz	x12,80000bea <calc_func+0x686>
80000be0:	7669                	lui	x12,0xffffa
80000be2:	0605                	addi	x12,x12,1
80000be4:	8fb1                	xor	x15,x15,x12
80000be6:	07c2                	slli	x15,x15,0x10
80000be8:	83c1                	srli	x15,x15,0x10
80000bea:	8f3d                	xor	x14,x14,x15
80000bec:	8b05                	andi	x14,x14,1
80000bee:	829d                	srli	x13,x13,0x7
80000bf0:	8385                	srli	x15,x15,0x1
80000bf2:	c711                	beqz	x14,80000bfe <calc_func+0x69a>
80000bf4:	7769                	lui	x14,0xffffa
80000bf6:	0705                	addi	x14,x14,1
80000bf8:	8fb9                	xor	x15,x15,x14
80000bfa:	07c2                	slli	x15,x15,0x10
80000bfc:	83c1                	srli	x15,x15,0x10
80000bfe:	0017d613          	srli	x12,x15,0x1
80000c02:	0017f713          	andi	x14,x15,1
80000c06:	d632                	sw	x12,44(x2)
80000c08:	00d70863          	beq	x14,x13,80000c18 <calc_func+0x6b4>
80000c0c:	77e9                	lui	x15,0xffffa
80000c0e:	0785                	addi	x15,x15,1
80000c10:	8fb1                	xor	x15,x15,x12
80000c12:	07c2                	slli	x15,x15,0x10
80000c14:	83c1                	srli	x15,x15,0x10
80000c16:	d63e                	sw	x15,44(x2)
80000c18:	500b8ce3          	beqz	x23,80001930 <calc_func+0x13cc>
80000c1c:	57a2                	lw	x15,40(x2)
80000c1e:	001b9493          	slli	x9,x23,0x1
80000c22:	c402                	sw	x0,8(x2)
80000c24:	8cbe                	mv	x25,x15
80000c26:	00978933          	add	x18,x15,x9
80000c2a:	002b9793          	slli	x15,x23,0x2
80000c2e:	ce3e                	sw	x15,28(x2)
80000c30:	4792                	lw	x15,4(x2)
80000c32:	97a6                	add	x15,x15,x9
80000c34:	c03e                	sw	x15,0(x2)
80000c36:	5782                	lw	x15,32(x2)
80000c38:	c63e                	sw	x15,12(x2)
80000c3a:	4992                	lw	x19,4(x2)
80000c3c:	4ab2                	lw	x21,12(x2)
80000c3e:	8d4e                	mv	x26,x19
80000c40:	8c66                	mv	x24,x25
80000c42:	4d81                	li	x27,0
80000c44:	000d1583          	lh	x11,0(x26)
80000c48:	000c1503          	lh	x10,0(x24)
80000c4c:	0c09                	addi	x24,x24,2
80000c4e:	9d26                	add	x26,x26,x9
80000c50:	00002097          	auipc	x1,0x2
80000c54:	a7c080e7          	jalr	-1412(x1) # 800026cc <__mulsi3>
80000c58:	9daa                	add	x27,x27,x10
80000c5a:	ff2c15e3          	bne	x24,x18,80000c44 <calc_func+0x6e0>
80000c5e:	4782                	lw	x15,0(x2)
80000c60:	01baa023          	sw	x27,0(x21)
80000c64:	0989                	addi	x19,x19,2
80000c66:	0a91                	addi	x21,x21,4
80000c68:	fd379be3          	bne	x15,x19,80000c3e <calc_func+0x6da>
80000c6c:	47a2                	lw	x15,8(x2)
80000c6e:	4732                	lw	x14,12(x2)
80000c70:	46f2                	lw	x13,28(x2)
80000c72:	0785                	addi	x15,x15,1
80000c74:	c43e                	sw	x15,8(x2)
80000c76:	9736                	add	x14,x14,x13
80000c78:	c63a                	sw	x14,12(x2)
80000c7a:	9ca6                	add	x25,x25,x9
80000c7c:	009c0933          	add	x18,x24,x9
80000c80:	fafb9de3          	bne	x23,x15,80000c3a <calc_func+0x6d6>
80000c84:	5782                	lw	x15,32(x2)
80000c86:	41700333          	neg	x6,x23
80000c8a:	00231e93          	slli	x29,x6,0x2
80000c8e:	00d78e33          	add	x28,x15,x13
80000c92:	4701                	li	x14,0
80000c94:	4781                	li	x15,0
80000c96:	4581                	li	x11,0
80000c98:	4801                	li	x16,0
80000c9a:	030e                	slli	x6,x6,0x3
80000c9c:	01de08b3          	add	x17,x28,x29
80000ca0:	8646                	mv	x12,x17
80000ca2:	86ba                	mv	x13,x14
80000ca4:	a039                	j	80000cb2 <calc_func+0x74e>
80000ca6:	07c2                	slli	x15,x15,0x10
80000ca8:	0611                	addi	x12,x12,4
80000caa:	87c1                	srai	x15,x15,0x10
80000cac:	86ba                	mv	x13,x14
80000cae:	02ce0563          	beq	x28,x12,80000cd8 <calc_func+0x774>
80000cb2:	4218                	lw	x14,0(x12)
80000cb4:	07c2                	slli	x15,x15,0x10
80000cb6:	83c1                	srli	x15,x15,0x10
80000cb8:	00e6a6b3          	slt	x13,x13,x14
80000cbc:	95ba                	add	x11,x11,x14
80000cbe:	00a78513          	addi	x10,x15,10 # ffffa00a <_stack_top+0x3fffa00a>
80000cc2:	97b6                	add	x15,x15,x13
80000cc4:	feba51e3          	ble	x11,x20,80000ca6 <calc_func+0x742>
80000cc8:	01051793          	slli	x15,x10,0x10
80000ccc:	0611                	addi	x12,x12,4
80000cce:	87c1                	srai	x15,x15,0x10
80000cd0:	4581                	li	x11,0
80000cd2:	86ba                	mv	x13,x14
80000cd4:	fcce1fe3          	bne	x28,x12,80000cb2 <calc_func+0x74e>
80000cd8:	46a2                	lw	x13,8(x2)
80000cda:	0805                	addi	x16,x16,1
80000cdc:	40688e33          	sub	x28,x17,x6
80000ce0:	fb069ee3          	bne	x13,x16,80000c9c <calc_func+0x738>
80000ce4:	01079693          	slli	x13,x15,0x10
80000ce8:	82c1                	srli	x13,x13,0x10
80000cea:	0ff7f793          	andi	x15,x15,255
80000cee:	82a1                	srli	x13,x13,0x8
80000cf0:	5732                	lw	x14,44(x2)
80000cf2:	0017d613          	srli	x12,x15,0x1
80000cf6:	00f745b3          	xor	x11,x14,x15
80000cfa:	8985                	andi	x11,x11,1
80000cfc:	8305                	srli	x14,x14,0x1
80000cfe:	c591                	beqz	x11,80000d0a <calc_func+0x7a6>
80000d00:	75e9                	lui	x11,0xffffa
80000d02:	0585                	addi	x11,x11,1
80000d04:	8f2d                	xor	x14,x14,x11
80000d06:	0742                	slli	x14,x14,0x10
80000d08:	8341                	srli	x14,x14,0x10
80000d0a:	8e39                	xor	x12,x12,x14
80000d0c:	8a05                	andi	x12,x12,1
80000d0e:	0027d593          	srli	x11,x15,0x2
80000d12:	8305                	srli	x14,x14,0x1
80000d14:	c611                	beqz	x12,80000d20 <calc_func+0x7bc>
80000d16:	7669                	lui	x12,0xffffa
80000d18:	0605                	addi	x12,x12,1
80000d1a:	8f31                	xor	x14,x14,x12
80000d1c:	0742                	slli	x14,x14,0x10
80000d1e:	8341                	srli	x14,x14,0x10
80000d20:	8db9                	xor	x11,x11,x14
80000d22:	8985                	andi	x11,x11,1
80000d24:	0037d613          	srli	x12,x15,0x3
80000d28:	8305                	srli	x14,x14,0x1
80000d2a:	c591                	beqz	x11,80000d36 <calc_func+0x7d2>
80000d2c:	75e9                	lui	x11,0xffffa
80000d2e:	0585                	addi	x11,x11,1
80000d30:	8f2d                	xor	x14,x14,x11
80000d32:	0742                	slli	x14,x14,0x10
80000d34:	8341                	srli	x14,x14,0x10
80000d36:	8e39                	xor	x12,x12,x14
80000d38:	8a05                	andi	x12,x12,1
80000d3a:	0047d593          	srli	x11,x15,0x4
80000d3e:	8305                	srli	x14,x14,0x1
80000d40:	c611                	beqz	x12,80000d4c <calc_func+0x7e8>
80000d42:	7669                	lui	x12,0xffffa
80000d44:	0605                	addi	x12,x12,1
80000d46:	8f31                	xor	x14,x14,x12
80000d48:	0742                	slli	x14,x14,0x10
80000d4a:	8341                	srli	x14,x14,0x10
80000d4c:	8db9                	xor	x11,x11,x14
80000d4e:	8985                	andi	x11,x11,1
80000d50:	0057d613          	srli	x12,x15,0x5
80000d54:	8305                	srli	x14,x14,0x1
80000d56:	c591                	beqz	x11,80000d62 <calc_func+0x7fe>
80000d58:	75e9                	lui	x11,0xffffa
80000d5a:	0585                	addi	x11,x11,1
80000d5c:	8f2d                	xor	x14,x14,x11
80000d5e:	0742                	slli	x14,x14,0x10
80000d60:	8341                	srli	x14,x14,0x10
80000d62:	8e39                	xor	x12,x12,x14
80000d64:	8a05                	andi	x12,x12,1
80000d66:	0067d593          	srli	x11,x15,0x6
80000d6a:	8305                	srli	x14,x14,0x1
80000d6c:	c611                	beqz	x12,80000d78 <calc_func+0x814>
80000d6e:	7669                	lui	x12,0xffffa
80000d70:	0605                	addi	x12,x12,1
80000d72:	8f31                	xor	x14,x14,x12
80000d74:	0742                	slli	x14,x14,0x10
80000d76:	8341                	srli	x14,x14,0x10
80000d78:	8db9                	xor	x11,x11,x14
80000d7a:	8985                	andi	x11,x11,1
80000d7c:	0077d613          	srli	x12,x15,0x7
80000d80:	00175793          	srli	x15,x14,0x1
80000d84:	c591                	beqz	x11,80000d90 <calc_func+0x82c>
80000d86:	7769                	lui	x14,0xffffa
80000d88:	0705                	addi	x14,x14,1
80000d8a:	8fb9                	xor	x15,x15,x14
80000d8c:	07c2                	slli	x15,x15,0x10
80000d8e:	83c1                	srli	x15,x15,0x10
80000d90:	0017f713          	andi	x14,x15,1
80000d94:	8385                	srli	x15,x15,0x1
80000d96:	00c70763          	beq	x14,x12,80000da4 <calc_func+0x840>
80000d9a:	7769                	lui	x14,0xffffa
80000d9c:	0705                	addi	x14,x14,1
80000d9e:	8fb9                	xor	x15,x15,x14
80000da0:	07c2                	slli	x15,x15,0x10
80000da2:	83c1                	srli	x15,x15,0x10
80000da4:	00f6c733          	xor	x14,x13,x15
80000da8:	8b05                	andi	x14,x14,1
80000daa:	0016d613          	srli	x12,x13,0x1
80000dae:	8385                	srli	x15,x15,0x1
80000db0:	c711                	beqz	x14,80000dbc <calc_func+0x858>
80000db2:	7769                	lui	x14,0xffffa
80000db4:	0705                	addi	x14,x14,1
80000db6:	8fb9                	xor	x15,x15,x14
80000db8:	07c2                	slli	x15,x15,0x10
80000dba:	83c1                	srli	x15,x15,0x10
80000dbc:	8e3d                	xor	x12,x12,x15
80000dbe:	8a05                	andi	x12,x12,1
80000dc0:	0026d713          	srli	x14,x13,0x2
80000dc4:	8385                	srli	x15,x15,0x1
80000dc6:	c611                	beqz	x12,80000dd2 <calc_func+0x86e>
80000dc8:	7669                	lui	x12,0xffffa
80000dca:	0605                	addi	x12,x12,1
80000dcc:	8fb1                	xor	x15,x15,x12
80000dce:	07c2                	slli	x15,x15,0x10
80000dd0:	83c1                	srli	x15,x15,0x10
80000dd2:	8f3d                	xor	x14,x14,x15
80000dd4:	8b05                	andi	x14,x14,1
80000dd6:	0036d613          	srli	x12,x13,0x3
80000dda:	8385                	srli	x15,x15,0x1
80000ddc:	c711                	beqz	x14,80000de8 <calc_func+0x884>
80000dde:	7769                	lui	x14,0xffffa
80000de0:	0705                	addi	x14,x14,1
80000de2:	8fb9                	xor	x15,x15,x14
80000de4:	07c2                	slli	x15,x15,0x10
80000de6:	83c1                	srli	x15,x15,0x10
80000de8:	8e3d                	xor	x12,x12,x15
80000dea:	8a05                	andi	x12,x12,1
80000dec:	0046d713          	srli	x14,x13,0x4
80000df0:	8385                	srli	x15,x15,0x1
80000df2:	c611                	beqz	x12,80000dfe <calc_func+0x89a>
80000df4:	7669                	lui	x12,0xffffa
80000df6:	0605                	addi	x12,x12,1
80000df8:	8fb1                	xor	x15,x15,x12
80000dfa:	07c2                	slli	x15,x15,0x10
80000dfc:	83c1                	srli	x15,x15,0x10
80000dfe:	8f3d                	xor	x14,x14,x15
80000e00:	8b05                	andi	x14,x14,1
80000e02:	0056d613          	srli	x12,x13,0x5
80000e06:	8385                	srli	x15,x15,0x1
80000e08:	c711                	beqz	x14,80000e14 <calc_func+0x8b0>
80000e0a:	7769                	lui	x14,0xffffa
80000e0c:	0705                	addi	x14,x14,1
80000e0e:	8fb9                	xor	x15,x15,x14
80000e10:	07c2                	slli	x15,x15,0x10
80000e12:	83c1                	srli	x15,x15,0x10
80000e14:	8e3d                	xor	x12,x12,x15
80000e16:	8a05                	andi	x12,x12,1
80000e18:	0066d713          	srli	x14,x13,0x6
80000e1c:	8385                	srli	x15,x15,0x1
80000e1e:	c611                	beqz	x12,80000e2a <calc_func+0x8c6>
80000e20:	7669                	lui	x12,0xffffa
80000e22:	0605                	addi	x12,x12,1
80000e24:	8fb1                	xor	x15,x15,x12
80000e26:	07c2                	slli	x15,x15,0x10
80000e28:	83c1                	srli	x15,x15,0x10
80000e2a:	8f3d                	xor	x14,x14,x15
80000e2c:	8b05                	andi	x14,x14,1
80000e2e:	829d                	srli	x13,x13,0x7
80000e30:	8385                	srli	x15,x15,0x1
80000e32:	c711                	beqz	x14,80000e3e <calc_func+0x8da>
80000e34:	7769                	lui	x14,0xffffa
80000e36:	0705                	addi	x14,x14,1
80000e38:	8fb9                	xor	x15,x15,x14
80000e3a:	07c2                	slli	x15,x15,0x10
80000e3c:	83c1                	srli	x15,x15,0x10
80000e3e:	0017d613          	srli	x12,x15,0x1
80000e42:	0017f713          	andi	x14,x15,1
80000e46:	ce32                	sw	x12,28(x2)
80000e48:	00d70863          	beq	x14,x13,80000e58 <calc_func+0x8f4>
80000e4c:	77e9                	lui	x15,0xffffa
80000e4e:	0785                	addi	x15,x15,1
80000e50:	8fb1                	xor	x15,x15,x12
80000e52:	07c2                	slli	x15,x15,0x10
80000e54:	83c1                	srli	x15,x15,0x10
80000e56:	ce3e                	sw	x15,28(x2)
80000e58:	2c0b89e3          	beqz	x23,8000192a <calc_func+0x13c6>
80000e5c:	57a2                	lw	x15,40(x2)
80000e5e:	001b9493          	slli	x9,x23,0x1
80000e62:	c402                	sw	x0,8(x2)
80000e64:	8cbe                	mv	x25,x15
80000e66:	00978933          	add	x18,x15,x9
80000e6a:	002b9793          	slli	x15,x23,0x2
80000e6e:	ca3e                	sw	x15,20(x2)
80000e70:	4792                	lw	x15,4(x2)
80000e72:	97a6                	add	x15,x15,x9
80000e74:	c03e                	sw	x15,0(x2)
80000e76:	5782                	lw	x15,32(x2)
80000e78:	c63e                	sw	x15,12(x2)
80000e7a:	4992                	lw	x19,4(x2)
80000e7c:	4ab2                	lw	x21,12(x2)
80000e7e:	8d4e                	mv	x26,x19
80000e80:	8de6                	mv	x27,x25
80000e82:	4c01                	li	x24,0
80000e84:	000d1583          	lh	x11,0(x26)
80000e88:	000d9503          	lh	x10,0(x27)
80000e8c:	0d89                	addi	x27,x27,2
80000e8e:	9d26                	add	x26,x26,x9
80000e90:	00002097          	auipc	x1,0x2
80000e94:	83c080e7          	jalr	-1988(x1) # 800026cc <__mulsi3>
80000e98:	40255613          	srai	x12,x10,0x2
80000e9c:	40555593          	srai	x11,x10,0x5
80000ea0:	07f5f593          	andi	x11,x11,127
80000ea4:	00f67513          	andi	x10,x12,15
80000ea8:	00002097          	auipc	x1,0x2
80000eac:	824080e7          	jalr	-2012(x1) # 800026cc <__mulsi3>
80000eb0:	9c2a                	add	x24,x24,x10
80000eb2:	fd2d99e3          	bne	x27,x18,80000e84 <calc_func+0x920>
80000eb6:	4782                	lw	x15,0(x2)
80000eb8:	018aa023          	sw	x24,0(x21)
80000ebc:	0989                	addi	x19,x19,2
80000ebe:	0a91                	addi	x21,x21,4
80000ec0:	fb379fe3          	bne	x15,x19,80000e7e <calc_func+0x91a>
80000ec4:	47a2                	lw	x15,8(x2)
80000ec6:	4732                	lw	x14,12(x2)
80000ec8:	46d2                	lw	x13,20(x2)
80000eca:	0785                	addi	x15,x15,1
80000ecc:	c43e                	sw	x15,8(x2)
80000ece:	9736                	add	x14,x14,x13
80000ed0:	c63a                	sw	x14,12(x2)
80000ed2:	9ca6                	add	x25,x25,x9
80000ed4:	009d8933          	add	x18,x27,x9
80000ed8:	fafb91e3          	bne	x23,x15,80000e7a <calc_func+0x916>
80000edc:	5782                	lw	x15,32(x2)
80000ede:	41700e33          	neg	x28,x23
80000ee2:	002e1e93          	slli	x29,x28,0x2
80000ee6:	00d78533          	add	x10,x15,x13
80000eea:	4701                	li	x14,0
80000eec:	4781                	li	x15,0
80000eee:	4581                	li	x11,0
80000ef0:	4881                	li	x17,0
80000ef2:	0e0e                	slli	x28,x28,0x3
80000ef4:	00ae8333          	add	x6,x29,x10
80000ef8:	861a                	mv	x12,x6
80000efa:	86ba                	mv	x13,x14
80000efc:	a039                	j	80000f0a <calc_func+0x9a6>
80000efe:	07c2                	slli	x15,x15,0x10
80000f00:	0611                	addi	x12,x12,4
80000f02:	87c1                	srai	x15,x15,0x10
80000f04:	86ba                	mv	x13,x14
80000f06:	02c50563          	beq	x10,x12,80000f30 <calc_func+0x9cc>
80000f0a:	4218                	lw	x14,0(x12)
80000f0c:	07c2                	slli	x15,x15,0x10
80000f0e:	83c1                	srli	x15,x15,0x10
80000f10:	00e6a6b3          	slt	x13,x13,x14
80000f14:	95ba                	add	x11,x11,x14
80000f16:	00a78813          	addi	x16,x15,10 # ffffa00a <_stack_top+0x3fffa00a>
80000f1a:	97b6                	add	x15,x15,x13
80000f1c:	feba51e3          	ble	x11,x20,80000efe <calc_func+0x99a>
80000f20:	01081793          	slli	x15,x16,0x10
80000f24:	0611                	addi	x12,x12,4
80000f26:	87c1                	srai	x15,x15,0x10
80000f28:	4581                	li	x11,0
80000f2a:	86ba                	mv	x13,x14
80000f2c:	fcc51fe3          	bne	x10,x12,80000f0a <calc_func+0x9a6>
80000f30:	46a2                	lw	x13,8(x2)
80000f32:	0885                	addi	x17,x17,1
80000f34:	41c30533          	sub	x10,x6,x28
80000f38:	fb169ee3          	bne	x13,x17,80000ef4 <calc_func+0x990>
80000f3c:	01079713          	slli	x14,x15,0x10
80000f40:	8341                	srli	x14,x14,0x10
80000f42:	0ff7f793          	andi	x15,x15,255
80000f46:	ca3e                	sw	x15,20(x2)
80000f48:	00875793          	srli	x15,x14,0x8
80000f4c:	46f2                	lw	x13,28(x2)
80000f4e:	4752                	lw	x14,20(x2)
80000f50:	00e6c633          	xor	x12,x13,x14
80000f54:	8a05                	andi	x12,x12,1
80000f56:	8305                	srli	x14,x14,0x1
80000f58:	8285                	srli	x13,x13,0x1
80000f5a:	c611                	beqz	x12,80000f66 <calc_func+0xa02>
80000f5c:	7669                	lui	x12,0xffffa
80000f5e:	0605                	addi	x12,x12,1
80000f60:	8eb1                	xor	x13,x13,x12
80000f62:	06c2                	slli	x13,x13,0x10
80000f64:	82c1                	srli	x13,x13,0x10
80000f66:	4652                	lw	x12,20(x2)
80000f68:	8f35                	xor	x14,x14,x13
80000f6a:	8b05                	andi	x14,x14,1
80000f6c:	8209                	srli	x12,x12,0x2
80000f6e:	8285                	srli	x13,x13,0x1
80000f70:	c711                	beqz	x14,80000f7c <calc_func+0xa18>
80000f72:	7769                	lui	x14,0xffffa
80000f74:	0705                	addi	x14,x14,1
80000f76:	8eb9                	xor	x13,x13,x14
80000f78:	06c2                	slli	x13,x13,0x10
80000f7a:	82c1                	srli	x13,x13,0x10
80000f7c:	4752                	lw	x14,20(x2)
80000f7e:	8e35                	xor	x12,x12,x13
80000f80:	8a05                	andi	x12,x12,1
80000f82:	830d                	srli	x14,x14,0x3
80000f84:	8285                	srli	x13,x13,0x1
80000f86:	c611                	beqz	x12,80000f92 <calc_func+0xa2e>
80000f88:	7669                	lui	x12,0xffffa
80000f8a:	0605                	addi	x12,x12,1
80000f8c:	8eb1                	xor	x13,x13,x12
80000f8e:	06c2                	slli	x13,x13,0x10
80000f90:	82c1                	srli	x13,x13,0x10
80000f92:	4652                	lw	x12,20(x2)
80000f94:	8f35                	xor	x14,x14,x13
80000f96:	8b05                	andi	x14,x14,1
80000f98:	8211                	srli	x12,x12,0x4
80000f9a:	8285                	srli	x13,x13,0x1
80000f9c:	c711                	beqz	x14,80000fa8 <calc_func+0xa44>
80000f9e:	7769                	lui	x14,0xffffa
80000fa0:	0705                	addi	x14,x14,1
80000fa2:	8eb9                	xor	x13,x13,x14
80000fa4:	06c2                	slli	x13,x13,0x10
80000fa6:	82c1                	srli	x13,x13,0x10
80000fa8:	4752                	lw	x14,20(x2)
80000faa:	8e35                	xor	x12,x12,x13
80000fac:	8a05                	andi	x12,x12,1
80000fae:	8315                	srli	x14,x14,0x5
80000fb0:	8285                	srli	x13,x13,0x1
80000fb2:	c611                	beqz	x12,80000fbe <calc_func+0xa5a>
80000fb4:	7669                	lui	x12,0xffffa
80000fb6:	0605                	addi	x12,x12,1
80000fb8:	8eb1                	xor	x13,x13,x12
80000fba:	06c2                	slli	x13,x13,0x10
80000fbc:	82c1                	srli	x13,x13,0x10
80000fbe:	4652                	lw	x12,20(x2)
80000fc0:	8f35                	xor	x14,x14,x13
80000fc2:	8b05                	andi	x14,x14,1
80000fc4:	8219                	srli	x12,x12,0x6
80000fc6:	8285                	srli	x13,x13,0x1
80000fc8:	c711                	beqz	x14,80000fd4 <calc_func+0xa70>
80000fca:	7769                	lui	x14,0xffffa
80000fcc:	0705                	addi	x14,x14,1
80000fce:	8eb9                	xor	x13,x13,x14
80000fd0:	06c2                	slli	x13,x13,0x10
80000fd2:	82c1                	srli	x13,x13,0x10
80000fd4:	4752                	lw	x14,20(x2)
80000fd6:	8e35                	xor	x12,x12,x13
80000fd8:	8a05                	andi	x12,x12,1
80000fda:	831d                	srli	x14,x14,0x7
80000fdc:	8285                	srli	x13,x13,0x1
80000fde:	c611                	beqz	x12,80000fea <calc_func+0xa86>
80000fe0:	7669                	lui	x12,0xffffa
80000fe2:	0605                	addi	x12,x12,1
80000fe4:	8eb1                	xor	x13,x13,x12
80000fe6:	06c2                	slli	x13,x13,0x10
80000fe8:	82c1                	srli	x13,x13,0x10
80000fea:	0016f613          	andi	x12,x13,1
80000fee:	8285                	srli	x13,x13,0x1
80000ff0:	00e60763          	beq	x12,x14,80000ffe <calc_func+0xa9a>
80000ff4:	7769                	lui	x14,0xffffa
80000ff6:	0705                	addi	x14,x14,1
80000ff8:	8eb9                	xor	x13,x13,x14
80000ffa:	06c2                	slli	x13,x13,0x10
80000ffc:	82c1                	srli	x13,x13,0x10
80000ffe:	00f6c733          	xor	x14,x13,x15
80001002:	8b05                	andi	x14,x14,1
80001004:	0017d613          	srli	x12,x15,0x1
80001008:	8285                	srli	x13,x13,0x1
8000100a:	c711                	beqz	x14,80001016 <calc_func+0xab2>
8000100c:	7769                	lui	x14,0xffffa
8000100e:	0705                	addi	x14,x14,1
80001010:	8eb9                	xor	x13,x13,x14
80001012:	06c2                	slli	x13,x13,0x10
80001014:	82c1                	srli	x13,x13,0x10
80001016:	8e35                	xor	x12,x12,x13
80001018:	8a05                	andi	x12,x12,1
8000101a:	0027d713          	srli	x14,x15,0x2
8000101e:	8285                	srli	x13,x13,0x1
80001020:	c611                	beqz	x12,8000102c <calc_func+0xac8>
80001022:	7669                	lui	x12,0xffffa
80001024:	0605                	addi	x12,x12,1
80001026:	8eb1                	xor	x13,x13,x12
80001028:	06c2                	slli	x13,x13,0x10
8000102a:	82c1                	srli	x13,x13,0x10
8000102c:	8f35                	xor	x14,x14,x13
8000102e:	8b05                	andi	x14,x14,1
80001030:	0037d613          	srli	x12,x15,0x3
80001034:	8285                	srli	x13,x13,0x1
80001036:	c711                	beqz	x14,80001042 <calc_func+0xade>
80001038:	7769                	lui	x14,0xffffa
8000103a:	0705                	addi	x14,x14,1
8000103c:	8eb9                	xor	x13,x13,x14
8000103e:	06c2                	slli	x13,x13,0x10
80001040:	82c1                	srli	x13,x13,0x10
80001042:	8e35                	xor	x12,x12,x13
80001044:	8a05                	andi	x12,x12,1
80001046:	0047d713          	srli	x14,x15,0x4
8000104a:	8285                	srli	x13,x13,0x1
8000104c:	c611                	beqz	x12,80001058 <calc_func+0xaf4>
8000104e:	7669                	lui	x12,0xffffa
80001050:	0605                	addi	x12,x12,1
80001052:	8eb1                	xor	x13,x13,x12
80001054:	06c2                	slli	x13,x13,0x10
80001056:	82c1                	srli	x13,x13,0x10
80001058:	8f35                	xor	x14,x14,x13
8000105a:	8b05                	andi	x14,x14,1
8000105c:	0057d613          	srli	x12,x15,0x5
80001060:	8285                	srli	x13,x13,0x1
80001062:	c711                	beqz	x14,8000106e <calc_func+0xb0a>
80001064:	7769                	lui	x14,0xffffa
80001066:	0705                	addi	x14,x14,1
80001068:	8eb9                	xor	x13,x13,x14
8000106a:	06c2                	slli	x13,x13,0x10
8000106c:	82c1                	srli	x13,x13,0x10
8000106e:	8e35                	xor	x12,x12,x13
80001070:	8a05                	andi	x12,x12,1
80001072:	0067d713          	srli	x14,x15,0x6
80001076:	8285                	srli	x13,x13,0x1
80001078:	c611                	beqz	x12,80001084 <calc_func+0xb20>
8000107a:	7669                	lui	x12,0xffffa
8000107c:	0605                	addi	x12,x12,1
8000107e:	8eb1                	xor	x13,x13,x12
80001080:	06c2                	slli	x13,x13,0x10
80001082:	82c1                	srli	x13,x13,0x10
80001084:	8f35                	xor	x14,x14,x13
80001086:	8b05                	andi	x14,x14,1
80001088:	839d                	srli	x15,x15,0x7
8000108a:	8285                	srli	x13,x13,0x1
8000108c:	c711                	beqz	x14,80001098 <calc_func+0xb34>
8000108e:	7769                	lui	x14,0xffffa
80001090:	0705                	addi	x14,x14,1
80001092:	8eb9                	xor	x13,x13,x14
80001094:	06c2                	slli	x13,x13,0x10
80001096:	82c1                	srli	x13,x13,0x10
80001098:	0016f713          	andi	x14,x13,1
8000109c:	8285                	srli	x13,x13,0x1
8000109e:	00f70763          	beq	x14,x15,800010ac <calc_func+0xb48>
800010a2:	77e9                	lui	x15,0xffffa
800010a4:	0785                	addi	x15,x15,1
800010a6:	8ebd                	xor	x13,x13,x15
800010a8:	06c2                	slli	x13,x13,0x10
800010aa:	82c1                	srli	x13,x13,0x10
800010ac:	020b8463          	beqz	x23,800010d4 <calc_func+0xb70>
800010b0:	57a2                	lw	x15,40(x2)
800010b2:	001b9513          	slli	x10,x23,0x1
800010b6:	4581                	li	x11,0
800010b8:	00f50633          	add	x12,x10,x15
800010bc:	0007d703          	lhu	x14,0(x15) # ffffa000 <_stack_top+0x3fffa000>
800010c0:	0789                	addi	x15,x15,2
800010c2:	41670733          	sub	x14,x14,x22
800010c6:	fee79f23          	sh	x14,-2(x15)
800010ca:	fec799e3          	bne	x15,x12,800010bc <calc_func+0xb58>
800010ce:	0585                	addi	x11,x11,1
800010d0:	febb94e3          	bne	x23,x11,800010b8 <calc_func+0xb54>
800010d4:	0086c633          	xor	x12,x13,x8
800010d8:	0ff6f713          	andi	x14,x13,255
800010dc:	8a05                	andi	x12,x12,1
800010de:	00175593          	srli	x11,x14,0x1
800010e2:	00145793          	srli	x15,x8,0x1
800010e6:	c611                	beqz	x12,800010f2 <calc_func+0xb8e>
800010e8:	7669                	lui	x12,0xffffa
800010ea:	0605                	addi	x12,x12,1
800010ec:	8fb1                	xor	x15,x15,x12
800010ee:	07c2                	slli	x15,x15,0x10
800010f0:	83c1                	srli	x15,x15,0x10
800010f2:	8dbd                	xor	x11,x11,x15
800010f4:	8985                	andi	x11,x11,1
800010f6:	00275613          	srli	x12,x14,0x2
800010fa:	8385                	srli	x15,x15,0x1
800010fc:	c591                	beqz	x11,80001108 <calc_func+0xba4>
800010fe:	75e9                	lui	x11,0xffffa
80001100:	0585                	addi	x11,x11,1
80001102:	8fad                	xor	x15,x15,x11
80001104:	07c2                	slli	x15,x15,0x10
80001106:	83c1                	srli	x15,x15,0x10
80001108:	8e3d                	xor	x12,x12,x15
8000110a:	8a05                	andi	x12,x12,1
8000110c:	00375593          	srli	x11,x14,0x3
80001110:	8385                	srli	x15,x15,0x1
80001112:	c611                	beqz	x12,8000111e <calc_func+0xbba>
80001114:	7669                	lui	x12,0xffffa
80001116:	0605                	addi	x12,x12,1
80001118:	8fb1                	xor	x15,x15,x12
8000111a:	07c2                	slli	x15,x15,0x10
8000111c:	83c1                	srli	x15,x15,0x10
8000111e:	8dbd                	xor	x11,x11,x15
80001120:	8985                	andi	x11,x11,1
80001122:	00475613          	srli	x12,x14,0x4
80001126:	8385                	srli	x15,x15,0x1
80001128:	c591                	beqz	x11,80001134 <calc_func+0xbd0>
8000112a:	75e9                	lui	x11,0xffffa
8000112c:	0585                	addi	x11,x11,1
8000112e:	8fad                	xor	x15,x15,x11
80001130:	07c2                	slli	x15,x15,0x10
80001132:	83c1                	srli	x15,x15,0x10
80001134:	8e3d                	xor	x12,x12,x15
80001136:	8a05                	andi	x12,x12,1
80001138:	00575593          	srli	x11,x14,0x5
8000113c:	8385                	srli	x15,x15,0x1
8000113e:	c611                	beqz	x12,8000114a <calc_func+0xbe6>
80001140:	7669                	lui	x12,0xffffa
80001142:	0605                	addi	x12,x12,1
80001144:	8fb1                	xor	x15,x15,x12
80001146:	07c2                	slli	x15,x15,0x10
80001148:	83c1                	srli	x15,x15,0x10
8000114a:	8dbd                	xor	x11,x11,x15
8000114c:	8985                	andi	x11,x11,1
8000114e:	00675613          	srli	x12,x14,0x6
80001152:	8385                	srli	x15,x15,0x1
80001154:	c591                	beqz	x11,80001160 <calc_func+0xbfc>
80001156:	75e9                	lui	x11,0xffffa
80001158:	0585                	addi	x11,x11,1
8000115a:	8fad                	xor	x15,x15,x11
8000115c:	07c2                	slli	x15,x15,0x10
8000115e:	83c1                	srli	x15,x15,0x10
80001160:	8e3d                	xor	x12,x12,x15
80001162:	8a05                	andi	x12,x12,1
80001164:	831d                	srli	x14,x14,0x7
80001166:	8385                	srli	x15,x15,0x1
80001168:	c611                	beqz	x12,80001174 <calc_func+0xc10>
8000116a:	7669                	lui	x12,0xffffa
8000116c:	0605                	addi	x12,x12,1
8000116e:	8fb1                	xor	x15,x15,x12
80001170:	07c2                	slli	x15,x15,0x10
80001172:	83c1                	srli	x15,x15,0x10
80001174:	0017f613          	andi	x12,x15,1
80001178:	8385                	srli	x15,x15,0x1
8000117a:	00e60763          	beq	x12,x14,80001188 <calc_func+0xc24>
8000117e:	7769                	lui	x14,0xffffa
80001180:	0705                	addi	x14,x14,1
80001182:	8fb9                	xor	x15,x15,x14
80001184:	07c2                	slli	x15,x15,0x10
80001186:	83c1                	srli	x15,x15,0x10
80001188:	0086d713          	srli	x14,x13,0x8
8000118c:	00e7c6b3          	xor	x13,x15,x14
80001190:	8a85                	andi	x13,x13,1
80001192:	0ff77713          	andi	x14,x14,255
80001196:	00175613          	srli	x12,x14,0x1
8000119a:	8385                	srli	x15,x15,0x1
8000119c:	c691                	beqz	x13,800011a8 <calc_func+0xc44>
8000119e:	76e9                	lui	x13,0xffffa
800011a0:	0685                	addi	x13,x13,1
800011a2:	8fb5                	xor	x15,x15,x13
800011a4:	07c2                	slli	x15,x15,0x10
800011a6:	83c1                	srli	x15,x15,0x10
800011a8:	8e3d                	xor	x12,x12,x15
800011aa:	8a05                	andi	x12,x12,1
800011ac:	00275693          	srli	x13,x14,0x2
800011b0:	8385                	srli	x15,x15,0x1
800011b2:	c611                	beqz	x12,800011be <calc_func+0xc5a>
800011b4:	7669                	lui	x12,0xffffa
800011b6:	0605                	addi	x12,x12,1
800011b8:	8fb1                	xor	x15,x15,x12
800011ba:	07c2                	slli	x15,x15,0x10
800011bc:	83c1                	srli	x15,x15,0x10
800011be:	8ebd                	xor	x13,x13,x15
800011c0:	8a85                	andi	x13,x13,1
800011c2:	00375613          	srli	x12,x14,0x3
800011c6:	8385                	srli	x15,x15,0x1
800011c8:	c691                	beqz	x13,800011d4 <calc_func+0xc70>
800011ca:	76e9                	lui	x13,0xffffa
800011cc:	0685                	addi	x13,x13,1
800011ce:	8fb5                	xor	x15,x15,x13
800011d0:	07c2                	slli	x15,x15,0x10
800011d2:	83c1                	srli	x15,x15,0x10
800011d4:	8e3d                	xor	x12,x12,x15
800011d6:	8a05                	andi	x12,x12,1
800011d8:	00475693          	srli	x13,x14,0x4
800011dc:	8385                	srli	x15,x15,0x1
800011de:	c611                	beqz	x12,800011ea <calc_func+0xc86>
800011e0:	7669                	lui	x12,0xffffa
800011e2:	0605                	addi	x12,x12,1
800011e4:	8fb1                	xor	x15,x15,x12
800011e6:	07c2                	slli	x15,x15,0x10
800011e8:	83c1                	srli	x15,x15,0x10
800011ea:	8ebd                	xor	x13,x13,x15
800011ec:	8a85                	andi	x13,x13,1
800011ee:	00575613          	srli	x12,x14,0x5
800011f2:	8385                	srli	x15,x15,0x1
800011f4:	c691                	beqz	x13,80001200 <calc_func+0xc9c>
800011f6:	76e9                	lui	x13,0xffffa
800011f8:	0685                	addi	x13,x13,1
800011fa:	8fb5                	xor	x15,x15,x13
800011fc:	07c2                	slli	x15,x15,0x10
800011fe:	83c1                	srli	x15,x15,0x10
80001200:	8e3d                	xor	x12,x12,x15
80001202:	8a05                	andi	x12,x12,1
80001204:	00675693          	srli	x13,x14,0x6
80001208:	8385                	srli	x15,x15,0x1
8000120a:	c611                	beqz	x12,80001216 <calc_func+0xcb2>
8000120c:	7669                	lui	x12,0xffffa
8000120e:	0605                	addi	x12,x12,1
80001210:	8fb1                	xor	x15,x15,x12
80001212:	07c2                	slli	x15,x15,0x10
80001214:	83c1                	srli	x15,x15,0x10
80001216:	8ebd                	xor	x13,x13,x15
80001218:	8a85                	andi	x13,x13,1
8000121a:	831d                	srli	x14,x14,0x7
8000121c:	8385                	srli	x15,x15,0x1
8000121e:	c691                	beqz	x13,8000122a <calc_func+0xcc6>
80001220:	76e9                	lui	x13,0xffffa
80001222:	0685                	addi	x13,x13,1
80001224:	8fb5                	xor	x15,x15,x13
80001226:	07c2                	slli	x15,x15,0x10
80001228:	83c1                	srli	x15,x15,0x10
8000122a:	0017f693          	andi	x13,x15,1
8000122e:	8385                	srli	x15,x15,0x1
80001230:	00e68763          	beq	x13,x14,8000123e <calc_func+0xcda>
80001234:	7769                	lui	x14,0xffffa
80001236:	0705                	addi	x14,x14,1
80001238:	8fb9                	xor	x15,x15,x14
8000123a:	07c2                	slli	x15,x15,0x10
8000123c:	83c1                	srli	x15,x15,0x10
8000123e:	4662                	lw	x12,24(x2)
80001240:	01079713          	slli	x14,x15,0x10
80001244:	8741                	srai	x14,x14,0x10
80001246:	03c65683          	lhu	x13,60(x12) # ffffa03c <_stack_top+0x3fffa03c>
8000124a:	6c068463          	beqz	x13,80001912 <calc_func+0x13ae>
8000124e:	03865403          	lhu	x8,56(x12)
80001252:	b62ff06f          	j	800005b4 <calc_func+0x50>
80001256:	02200793          	li	x15,34
8000125a:	89a6                	mv	x19,x9
8000125c:	00f4d463          	ble	x15,x9,80001264 <calc_func+0xd00>
80001260:	02200993          	li	x19,34
80001264:	4762                	lw	x14,24(x2)
80001266:	d082                	sw	x0,96(x2)
80001268:	d282                	sw	x0,100(x2)
8000126a:	01472903          	lw	x18,20(x14) # ffffa014 <_stack_top+0x3fffa014>
8000126e:	d482                	sw	x0,104(x2)
80001270:	d682                	sw	x0,108(x2)
80001272:	de4a                	sw	x18,60(x2)
80001274:	d882                	sw	x0,112(x2)
80001276:	da82                	sw	x0,116(x2)
80001278:	dc82                	sw	x0,120(x2)
8000127a:	de82                	sw	x0,124(x2)
8000127c:	00094783          	lbu	x15,0(x18)
80001280:	09c2                	slli	x19,x19,0x10
80001282:	c082                	sw	x0,64(x2)
80001284:	c282                	sw	x0,68(x2)
80001286:	c482                	sw	x0,72(x2)
80001288:	c682                	sw	x0,76(x2)
8000128a:	c882                	sw	x0,80(x2)
8000128c:	ca82                	sw	x0,84(x2)
8000128e:	cc82                	sw	x0,88(x2)
80001290:	ce82                	sw	x0,92(x2)
80001292:	4109d993          	srai	x19,x19,0x10
80001296:	01872b83          	lw	x23,24(x14)
8000129a:	00071b03          	lh	x22,0(x14)
8000129e:	00271a03          	lh	x20,2(x14)
800012a2:	1084                	addi	x9,x2,96
800012a4:	03c10a93          	addi	x21,x2,60
800012a8:	c39d                	beqz	x15,800012ce <calc_func+0xd6a>
800012aa:	85a6                	mv	x11,x9
800012ac:	8556                	mv	x10,x21
800012ae:	fffff097          	auipc	x1,0xfffff
800012b2:	060080e7          	jalr	96(x1) # 8000030e <core_state_transition>
800012b6:	011c                	addi	x15,x2,128
800012b8:	050a                	slli	x10,x10,0x2
800012ba:	953e                	add	x10,x10,x15
800012bc:	5772                	lw	x14,60(x2)
800012be:	fc052783          	lw	x15,-64(x10) # ffff9fc0 <_stack_top+0x3fff9fc0>
800012c2:	00074703          	lbu	x14,0(x14)
800012c6:	0785                	addi	x15,x15,1
800012c8:	fcf52023          	sw	x15,-64(x10)
800012cc:	ff79                	bnez	x14,800012aa <calc_func+0xd46>
800012ce:	de4a                	sw	x18,60(x2)
800012d0:	9bca                	add	x23,x23,x18
800012d2:	67797763          	bleu	x23,x18,80001940 <calc_func+0x13dc>
800012d6:	87ca                	mv	x15,x18
800012d8:	0007c703          	lbu	x14,0(x15)
800012dc:	02c00593          	li	x11,44
800012e0:	864a                	mv	x12,x18
800012e2:	016746b3          	xor	x13,x14,x22
800012e6:	02b70063          	beq	x14,x11,80001306 <calc_func+0xda2>
800012ea:	00d78023          	sb	x13,0(x15)
800012ee:	57f2                	lw	x15,60(x2)
800012f0:	97ce                	add	x15,x15,x19
800012f2:	de3e                	sw	x15,60(x2)
800012f4:	0177fe63          	bleu	x23,x15,80001310 <calc_func+0xdac>
800012f8:	0007c703          	lbu	x14,0(x15)
800012fc:	863e                	mv	x12,x15
800012fe:	016746b3          	xor	x13,x14,x22
80001302:	feb714e3          	bne	x14,x11,800012ea <calc_func+0xd86>
80001306:	013607b3          	add	x15,x12,x19
8000130a:	de3e                	sw	x15,60(x2)
8000130c:	ff77e6e3          	bltu	x15,x23,800012f8 <calc_func+0xd94>
80001310:	de4a                	sw	x18,60(x2)
80001312:	00094783          	lbu	x15,0(x18)
80001316:	cb85                	beqz	x15,80001346 <calc_func+0xde2>
80001318:	03c10a93          	addi	x21,x2,60
8000131c:	85a6                	mv	x11,x9
8000131e:	8556                	mv	x10,x21
80001320:	fffff097          	auipc	x1,0xfffff
80001324:	fee080e7          	jalr	-18(x1) # 8000030e <core_state_transition>
80001328:	011c                	addi	x15,x2,128
8000132a:	050a                	slli	x10,x10,0x2
8000132c:	953e                	add	x10,x10,x15
8000132e:	5772                	lw	x14,60(x2)
80001330:	fc052783          	lw	x15,-64(x10)
80001334:	00074703          	lbu	x14,0(x14)
80001338:	0785                	addi	x15,x15,1
8000133a:	fcf52023          	sw	x15,-64(x10)
8000133e:	ff79                	bnez	x14,8000131c <calc_func+0xdb8>
80001340:	de4a                	sw	x18,60(x2)
80001342:	03797163          	bleu	x23,x18,80001364 <calc_func+0xe00>
80001346:	02c00693          	li	x13,44
8000134a:	00094783          	lbu	x15,0(x18)
8000134e:	0147c733          	xor	x14,x15,x20
80001352:	5ad78b63          	beq	x15,x13,80001908 <calc_func+0x13a4>
80001356:	00e90023          	sb	x14,0(x18)
8000135a:	5972                	lw	x18,60(x2)
8000135c:	994e                	add	x18,x18,x19
8000135e:	de4a                	sw	x18,60(x2)
80001360:	ff7965e3          	bltu	x18,x23,8000134a <calc_func+0xde6>
80001364:	7769                	lui	x14,0xffffa
80001366:	0094                	addi	x13,x2,64
80001368:	8626                	mv	x12,x9
8000136a:	0705                	addi	x14,x14,1
8000136c:	428c                	lw	x11,0(x13)
8000136e:	00145793          	srli	x15,x8,0x1
80001372:	8c2d                	xor	x8,x8,x11
80001374:	0ff5f813          	andi	x16,x11,255
80001378:	01059513          	slli	x10,x11,0x10
8000137c:	8805                	andi	x8,x8,1
8000137e:	8141                	srli	x10,x10,0x10
80001380:	00185313          	srli	x6,x16,0x1
80001384:	c401                	beqz	x8,8000138c <calc_func+0xe28>
80001386:	8fb9                	xor	x15,x15,x14
80001388:	07c2                	slli	x15,x15,0x10
8000138a:	83c1                	srli	x15,x15,0x10
8000138c:	00f34333          	xor	x6,x6,x15
80001390:	00137313          	andi	x6,x6,1
80001394:	00285893          	srli	x17,x16,0x2
80001398:	8385                	srli	x15,x15,0x1
8000139a:	00030563          	beqz	x6,800013a4 <calc_func+0xe40>
8000139e:	8fb9                	xor	x15,x15,x14
800013a0:	07c2                	slli	x15,x15,0x10
800013a2:	83c1                	srli	x15,x15,0x10
800013a4:	00f8c8b3          	xor	x17,x17,x15
800013a8:	0018f893          	andi	x17,x17,1
800013ac:	00385313          	srli	x6,x16,0x3
800013b0:	8385                	srli	x15,x15,0x1
800013b2:	00088563          	beqz	x17,800013bc <calc_func+0xe58>
800013b6:	8fb9                	xor	x15,x15,x14
800013b8:	07c2                	slli	x15,x15,0x10
800013ba:	83c1                	srli	x15,x15,0x10
800013bc:	00f34333          	xor	x6,x6,x15
800013c0:	00137313          	andi	x6,x6,1
800013c4:	00485893          	srli	x17,x16,0x4
800013c8:	8385                	srli	x15,x15,0x1
800013ca:	00030563          	beqz	x6,800013d4 <calc_func+0xe70>
800013ce:	8fb9                	xor	x15,x15,x14
800013d0:	07c2                	slli	x15,x15,0x10
800013d2:	83c1                	srli	x15,x15,0x10
800013d4:	00f8c8b3          	xor	x17,x17,x15
800013d8:	0018f893          	andi	x17,x17,1
800013dc:	00585313          	srli	x6,x16,0x5
800013e0:	8385                	srli	x15,x15,0x1
800013e2:	00088563          	beqz	x17,800013ec <calc_func+0xe88>
800013e6:	8fb9                	xor	x15,x15,x14
800013e8:	07c2                	slli	x15,x15,0x10
800013ea:	83c1                	srli	x15,x15,0x10
800013ec:	00f34333          	xor	x6,x6,x15
800013f0:	00137313          	andi	x6,x6,1
800013f4:	00685893          	srli	x17,x16,0x6
800013f8:	8385                	srli	x15,x15,0x1
800013fa:	00030563          	beqz	x6,80001404 <calc_func+0xea0>
800013fe:	8fb9                	xor	x15,x15,x14
80001400:	07c2                	slli	x15,x15,0x10
80001402:	83c1                	srli	x15,x15,0x10
80001404:	00f8c8b3          	xor	x17,x17,x15
80001408:	0018f893          	andi	x17,x17,1
8000140c:	00785813          	srli	x16,x16,0x7
80001410:	8385                	srli	x15,x15,0x1
80001412:	00088563          	beqz	x17,8000141c <calc_func+0xeb8>
80001416:	8fb9                	xor	x15,x15,x14
80001418:	07c2                	slli	x15,x15,0x10
8000141a:	83c1                	srli	x15,x15,0x10
8000141c:	0017f893          	andi	x17,x15,1
80001420:	8385                	srli	x15,x15,0x1
80001422:	01088563          	beq	x17,x16,8000142c <calc_func+0xec8>
80001426:	8fb9                	xor	x15,x15,x14
80001428:	07c2                	slli	x15,x15,0x10
8000142a:	83c1                	srli	x15,x15,0x10
8000142c:	8121                	srli	x10,x10,0x8
8000142e:	00f54833          	xor	x16,x10,x15
80001432:	00187813          	andi	x16,x16,1
80001436:	0ff57513          	andi	x10,x10,255
8000143a:	00155893          	srli	x17,x10,0x1
8000143e:	8385                	srli	x15,x15,0x1
80001440:	00080563          	beqz	x16,8000144a <calc_func+0xee6>
80001444:	8fb9                	xor	x15,x15,x14
80001446:	07c2                	slli	x15,x15,0x10
80001448:	83c1                	srli	x15,x15,0x10
8000144a:	00f8c8b3          	xor	x17,x17,x15
8000144e:	0018f893          	andi	x17,x17,1
80001452:	00255813          	srli	x16,x10,0x2
80001456:	8385                	srli	x15,x15,0x1
80001458:	00088563          	beqz	x17,80001462 <calc_func+0xefe>
8000145c:	8fb9                	xor	x15,x15,x14
8000145e:	07c2                	slli	x15,x15,0x10
80001460:	83c1                	srli	x15,x15,0x10
80001462:	00f84833          	xor	x16,x16,x15
80001466:	00187813          	andi	x16,x16,1
8000146a:	00355893          	srli	x17,x10,0x3
8000146e:	8385                	srli	x15,x15,0x1
80001470:	00080563          	beqz	x16,8000147a <calc_func+0xf16>
80001474:	8fb9                	xor	x15,x15,x14
80001476:	07c2                	slli	x15,x15,0x10
80001478:	83c1                	srli	x15,x15,0x10
8000147a:	00f8c8b3          	xor	x17,x17,x15
8000147e:	0018f893          	andi	x17,x17,1
80001482:	00455813          	srli	x16,x10,0x4
80001486:	8385                	srli	x15,x15,0x1
80001488:	00088563          	beqz	x17,80001492 <calc_func+0xf2e>
8000148c:	8fb9                	xor	x15,x15,x14
8000148e:	07c2                	slli	x15,x15,0x10
80001490:	83c1                	srli	x15,x15,0x10
80001492:	00f84833          	xor	x16,x16,x15
80001496:	00187813          	andi	x16,x16,1
8000149a:	00555893          	srli	x17,x10,0x5
8000149e:	8385                	srli	x15,x15,0x1
800014a0:	00080563          	beqz	x16,800014aa <calc_func+0xf46>
800014a4:	8fb9                	xor	x15,x15,x14
800014a6:	07c2                	slli	x15,x15,0x10
800014a8:	83c1                	srli	x15,x15,0x10
800014aa:	00f8c8b3          	xor	x17,x17,x15
800014ae:	0018f893          	andi	x17,x17,1
800014b2:	00655813          	srli	x16,x10,0x6
800014b6:	8385                	srli	x15,x15,0x1
800014b8:	00088563          	beqz	x17,800014c2 <calc_func+0xf5e>
800014bc:	8fb9                	xor	x15,x15,x14
800014be:	07c2                	slli	x15,x15,0x10
800014c0:	83c1                	srli	x15,x15,0x10
800014c2:	00f84833          	xor	x16,x16,x15
800014c6:	00187813          	andi	x16,x16,1
800014ca:	811d                	srli	x10,x10,0x7
800014cc:	8385                	srli	x15,x15,0x1
800014ce:	00080563          	beqz	x16,800014d8 <calc_func+0xf74>
800014d2:	8fb9                	xor	x15,x15,x14
800014d4:	07c2                	slli	x15,x15,0x10
800014d6:	83c1                	srli	x15,x15,0x10
800014d8:	0017f813          	andi	x16,x15,1
800014dc:	8385                	srli	x15,x15,0x1
800014de:	00a80563          	beq	x16,x10,800014e8 <calc_func+0xf84>
800014e2:	8fb9                	xor	x15,x15,x14
800014e4:	07c2                	slli	x15,x15,0x10
800014e6:	83c1                	srli	x15,x15,0x10
800014e8:	81c1                	srli	x11,x11,0x10
800014ea:	00f5c833          	xor	x16,x11,x15
800014ee:	0ff5f513          	andi	x10,x11,255
800014f2:	00187813          	andi	x16,x16,1
800014f6:	05c2                	slli	x11,x11,0x10
800014f8:	81c1                	srli	x11,x11,0x10
800014fa:	00155893          	srli	x17,x10,0x1
800014fe:	8385                	srli	x15,x15,0x1
80001500:	00080563          	beqz	x16,8000150a <calc_func+0xfa6>
80001504:	8fb9                	xor	x15,x15,x14
80001506:	07c2                	slli	x15,x15,0x10
80001508:	83c1                	srli	x15,x15,0x10
8000150a:	00f8c8b3          	xor	x17,x17,x15
8000150e:	0018f893          	andi	x17,x17,1
80001512:	00255813          	srli	x16,x10,0x2
80001516:	8385                	srli	x15,x15,0x1
80001518:	00088563          	beqz	x17,80001522 <calc_func+0xfbe>
8000151c:	8fb9                	xor	x15,x15,x14
8000151e:	07c2                	slli	x15,x15,0x10
80001520:	83c1                	srli	x15,x15,0x10
80001522:	00f84833          	xor	x16,x16,x15
80001526:	00187813          	andi	x16,x16,1
8000152a:	00355893          	srli	x17,x10,0x3
8000152e:	8385                	srli	x15,x15,0x1
80001530:	00080563          	beqz	x16,8000153a <calc_func+0xfd6>
80001534:	8fb9                	xor	x15,x15,x14
80001536:	07c2                	slli	x15,x15,0x10
80001538:	83c1                	srli	x15,x15,0x10
8000153a:	00f8c8b3          	xor	x17,x17,x15
8000153e:	0018f893          	andi	x17,x17,1
80001542:	00455813          	srli	x16,x10,0x4
80001546:	8385                	srli	x15,x15,0x1
80001548:	00088563          	beqz	x17,80001552 <calc_func+0xfee>
8000154c:	8fb9                	xor	x15,x15,x14
8000154e:	07c2                	slli	x15,x15,0x10
80001550:	83c1                	srli	x15,x15,0x10
80001552:	00f84833          	xor	x16,x16,x15
80001556:	00187813          	andi	x16,x16,1
8000155a:	00555893          	srli	x17,x10,0x5
8000155e:	8385                	srli	x15,x15,0x1
80001560:	00080563          	beqz	x16,8000156a <calc_func+0x1006>
80001564:	8fb9                	xor	x15,x15,x14
80001566:	07c2                	slli	x15,x15,0x10
80001568:	83c1                	srli	x15,x15,0x10
8000156a:	00f8c8b3          	xor	x17,x17,x15
8000156e:	0018f893          	andi	x17,x17,1
80001572:	00655813          	srli	x16,x10,0x6
80001576:	8385                	srli	x15,x15,0x1
80001578:	00088563          	beqz	x17,80001582 <calc_func+0x101e>
8000157c:	8fb9                	xor	x15,x15,x14
8000157e:	07c2                	slli	x15,x15,0x10
80001580:	83c1                	srli	x15,x15,0x10
80001582:	00f84833          	xor	x16,x16,x15
80001586:	00187813          	andi	x16,x16,1
8000158a:	811d                	srli	x10,x10,0x7
8000158c:	8385                	srli	x15,x15,0x1
8000158e:	00080563          	beqz	x16,80001598 <calc_func+0x1034>
80001592:	8fb9                	xor	x15,x15,x14
80001594:	07c2                	slli	x15,x15,0x10
80001596:	83c1                	srli	x15,x15,0x10
80001598:	0017f813          	andi	x16,x15,1
8000159c:	8385                	srli	x15,x15,0x1
8000159e:	00a80563          	beq	x16,x10,800015a8 <calc_func+0x1044>
800015a2:	8fb9                	xor	x15,x15,x14
800015a4:	07c2                	slli	x15,x15,0x10
800015a6:	83c1                	srli	x15,x15,0x10
800015a8:	81a1                	srli	x11,x11,0x8
800015aa:	00f5c533          	xor	x10,x11,x15
800015ae:	8905                	andi	x10,x10,1
800015b0:	0ff5f593          	andi	x11,x11,255
800015b4:	0015d813          	srli	x16,x11,0x1
800015b8:	8385                	srli	x15,x15,0x1
800015ba:	c501                	beqz	x10,800015c2 <calc_func+0x105e>
800015bc:	8fb9                	xor	x15,x15,x14
800015be:	07c2                	slli	x15,x15,0x10
800015c0:	83c1                	srli	x15,x15,0x10
800015c2:	00f84833          	xor	x16,x16,x15
800015c6:	00187813          	andi	x16,x16,1
800015ca:	0025d513          	srli	x10,x11,0x2
800015ce:	8385                	srli	x15,x15,0x1
800015d0:	00080563          	beqz	x16,800015da <calc_func+0x1076>
800015d4:	8fb9                	xor	x15,x15,x14
800015d6:	07c2                	slli	x15,x15,0x10
800015d8:	83c1                	srli	x15,x15,0x10
800015da:	8d3d                	xor	x10,x10,x15
800015dc:	8905                	andi	x10,x10,1
800015de:	0035d813          	srli	x16,x11,0x3
800015e2:	8385                	srli	x15,x15,0x1
800015e4:	c501                	beqz	x10,800015ec <calc_func+0x1088>
800015e6:	8fb9                	xor	x15,x15,x14
800015e8:	07c2                	slli	x15,x15,0x10
800015ea:	83c1                	srli	x15,x15,0x10
800015ec:	00f84833          	xor	x16,x16,x15
800015f0:	00187813          	andi	x16,x16,1
800015f4:	0045d513          	srli	x10,x11,0x4
800015f8:	8385                	srli	x15,x15,0x1
800015fa:	00080563          	beqz	x16,80001604 <calc_func+0x10a0>
800015fe:	8fb9                	xor	x15,x15,x14
80001600:	07c2                	slli	x15,x15,0x10
80001602:	83c1                	srli	x15,x15,0x10
80001604:	8d3d                	xor	x10,x10,x15
80001606:	8905                	andi	x10,x10,1
80001608:	0055d813          	srli	x16,x11,0x5
8000160c:	8385                	srli	x15,x15,0x1
8000160e:	c501                	beqz	x10,80001616 <calc_func+0x10b2>
80001610:	8fb9                	xor	x15,x15,x14
80001612:	07c2                	slli	x15,x15,0x10
80001614:	83c1                	srli	x15,x15,0x10
80001616:	00f84833          	xor	x16,x16,x15
8000161a:	00187813          	andi	x16,x16,1
8000161e:	0065d513          	srli	x10,x11,0x6
80001622:	8385                	srli	x15,x15,0x1
80001624:	00080563          	beqz	x16,8000162e <calc_func+0x10ca>
80001628:	8fb9                	xor	x15,x15,x14
8000162a:	07c2                	slli	x15,x15,0x10
8000162c:	83c1                	srli	x15,x15,0x10
8000162e:	8d3d                	xor	x10,x10,x15
80001630:	8905                	andi	x10,x10,1
80001632:	819d                	srli	x11,x11,0x7
80001634:	8385                	srli	x15,x15,0x1
80001636:	c501                	beqz	x10,8000163e <calc_func+0x10da>
80001638:	8fb9                	xor	x15,x15,x14
8000163a:	07c2                	slli	x15,x15,0x10
8000163c:	83c1                	srli	x15,x15,0x10
8000163e:	0017f513          	andi	x10,x15,1
80001642:	8385                	srli	x15,x15,0x1
80001644:	00b50563          	beq	x10,x11,8000164e <calc_func+0x10ea>
80001648:	8fb9                	xor	x15,x15,x14
8000164a:	07c2                	slli	x15,x15,0x10
8000164c:	83c1                	srli	x15,x15,0x10
8000164e:	420c                	lw	x11,0(x12)
80001650:	0017d413          	srli	x8,x15,0x1
80001654:	8fad                	xor	x15,x15,x11
80001656:	0ff5f813          	andi	x16,x11,255
8000165a:	01059513          	slli	x10,x11,0x10
8000165e:	8b85                	andi	x15,x15,1
80001660:	8141                	srli	x10,x10,0x10
80001662:	00185893          	srli	x17,x16,0x1
80001666:	c781                	beqz	x15,8000166e <calc_func+0x110a>
80001668:	8c39                	xor	x8,x8,x14
8000166a:	0442                	slli	x8,x8,0x10
8000166c:	8041                	srli	x8,x8,0x10
8000166e:	0088c7b3          	xor	x15,x17,x8
80001672:	8b85                	andi	x15,x15,1
80001674:	00285893          	srli	x17,x16,0x2
80001678:	8005                	srli	x8,x8,0x1
8000167a:	c781                	beqz	x15,80001682 <calc_func+0x111e>
8000167c:	8c39                	xor	x8,x8,x14
8000167e:	0442                	slli	x8,x8,0x10
80001680:	8041                	srli	x8,x8,0x10
80001682:	0088c8b3          	xor	x17,x17,x8
80001686:	0018f893          	andi	x17,x17,1
8000168a:	00385793          	srli	x15,x16,0x3
8000168e:	8005                	srli	x8,x8,0x1
80001690:	00088563          	beqz	x17,8000169a <calc_func+0x1136>
80001694:	8c39                	xor	x8,x8,x14
80001696:	0442                	slli	x8,x8,0x10
80001698:	8041                	srli	x8,x8,0x10
8000169a:	8fa1                	xor	x15,x15,x8
8000169c:	8b85                	andi	x15,x15,1
8000169e:	00485893          	srli	x17,x16,0x4
800016a2:	8005                	srli	x8,x8,0x1
800016a4:	c781                	beqz	x15,800016ac <calc_func+0x1148>
800016a6:	8c39                	xor	x8,x8,x14
800016a8:	0442                	slli	x8,x8,0x10
800016aa:	8041                	srli	x8,x8,0x10
800016ac:	0088c8b3          	xor	x17,x17,x8
800016b0:	0018f893          	andi	x17,x17,1
800016b4:	00585793          	srli	x15,x16,0x5
800016b8:	8005                	srli	x8,x8,0x1
800016ba:	00088563          	beqz	x17,800016c4 <calc_func+0x1160>
800016be:	8c39                	xor	x8,x8,x14
800016c0:	0442                	slli	x8,x8,0x10
800016c2:	8041                	srli	x8,x8,0x10
800016c4:	8fa1                	xor	x15,x15,x8
800016c6:	8b85                	andi	x15,x15,1
800016c8:	00685893          	srli	x17,x16,0x6
800016cc:	8005                	srli	x8,x8,0x1
800016ce:	c781                	beqz	x15,800016d6 <calc_func+0x1172>
800016d0:	8c39                	xor	x8,x8,x14
800016d2:	0442                	slli	x8,x8,0x10
800016d4:	8041                	srli	x8,x8,0x10
800016d6:	0088c8b3          	xor	x17,x17,x8
800016da:	0018f893          	andi	x17,x17,1
800016de:	00785793          	srli	x15,x16,0x7
800016e2:	8005                	srli	x8,x8,0x1
800016e4:	00088563          	beqz	x17,800016ee <calc_func+0x118a>
800016e8:	8c39                	xor	x8,x8,x14
800016ea:	0442                	slli	x8,x8,0x10
800016ec:	8041                	srli	x8,x8,0x10
800016ee:	00147813          	andi	x16,x8,1
800016f2:	8005                	srli	x8,x8,0x1
800016f4:	00f80563          	beq	x16,x15,800016fe <calc_func+0x119a>
800016f8:	8c39                	xor	x8,x8,x14
800016fa:	0442                	slli	x8,x8,0x10
800016fc:	8041                	srli	x8,x8,0x10
800016fe:	00855793          	srli	x15,x10,0x8
80001702:	0087c533          	xor	x10,x15,x8
80001706:	8905                	andi	x10,x10,1
80001708:	0ff7f793          	andi	x15,x15,255
8000170c:	0017d813          	srli	x16,x15,0x1
80001710:	8005                	srli	x8,x8,0x1
80001712:	c501                	beqz	x10,8000171a <calc_func+0x11b6>
80001714:	8c39                	xor	x8,x8,x14
80001716:	0442                	slli	x8,x8,0x10
80001718:	8041                	srli	x8,x8,0x10
8000171a:	00884833          	xor	x16,x16,x8
8000171e:	00187813          	andi	x16,x16,1
80001722:	0027d513          	srli	x10,x15,0x2
80001726:	8005                	srli	x8,x8,0x1
80001728:	00080563          	beqz	x16,80001732 <calc_func+0x11ce>
8000172c:	8c39                	xor	x8,x8,x14
8000172e:	0442                	slli	x8,x8,0x10
80001730:	8041                	srli	x8,x8,0x10
80001732:	8d21                	xor	x10,x10,x8
80001734:	8905                	andi	x10,x10,1
80001736:	0037d813          	srli	x16,x15,0x3
8000173a:	8005                	srli	x8,x8,0x1
8000173c:	c501                	beqz	x10,80001744 <calc_func+0x11e0>
8000173e:	8c39                	xor	x8,x8,x14
80001740:	0442                	slli	x8,x8,0x10
80001742:	8041                	srli	x8,x8,0x10
80001744:	00884833          	xor	x16,x16,x8
80001748:	00187813          	andi	x16,x16,1
8000174c:	0047d513          	srli	x10,x15,0x4
80001750:	8005                	srli	x8,x8,0x1
80001752:	00080563          	beqz	x16,8000175c <calc_func+0x11f8>
80001756:	8c39                	xor	x8,x8,x14
80001758:	0442                	slli	x8,x8,0x10
8000175a:	8041                	srli	x8,x8,0x10
8000175c:	8d21                	xor	x10,x10,x8
8000175e:	8905                	andi	x10,x10,1
80001760:	0057d813          	srli	x16,x15,0x5
80001764:	8005                	srli	x8,x8,0x1
80001766:	c501                	beqz	x10,8000176e <calc_func+0x120a>
80001768:	8c39                	xor	x8,x8,x14
8000176a:	0442                	slli	x8,x8,0x10
8000176c:	8041                	srli	x8,x8,0x10
8000176e:	00884833          	xor	x16,x16,x8
80001772:	00187813          	andi	x16,x16,1
80001776:	0067d513          	srli	x10,x15,0x6
8000177a:	8005                	srli	x8,x8,0x1
8000177c:	00080563          	beqz	x16,80001786 <calc_func+0x1222>
80001780:	8c39                	xor	x8,x8,x14
80001782:	0442                	slli	x8,x8,0x10
80001784:	8041                	srli	x8,x8,0x10
80001786:	8d21                	xor	x10,x10,x8
80001788:	8905                	andi	x10,x10,1
8000178a:	839d                	srli	x15,x15,0x7
8000178c:	8005                	srli	x8,x8,0x1
8000178e:	c501                	beqz	x10,80001796 <calc_func+0x1232>
80001790:	8c39                	xor	x8,x8,x14
80001792:	0442                	slli	x8,x8,0x10
80001794:	8041                	srli	x8,x8,0x10
80001796:	00147513          	andi	x10,x8,1
8000179a:	8005                	srli	x8,x8,0x1
8000179c:	00f50563          	beq	x10,x15,800017a6 <calc_func+0x1242>
800017a0:	8c39                	xor	x8,x8,x14
800017a2:	0442                	slli	x8,x8,0x10
800017a4:	8041                	srli	x8,x8,0x10
800017a6:	81c1                	srli	x11,x11,0x10
800017a8:	0085c7b3          	xor	x15,x11,x8
800017ac:	0ff5f513          	andi	x10,x11,255
800017b0:	8b85                	andi	x15,x15,1
800017b2:	05c2                	slli	x11,x11,0x10
800017b4:	81c1                	srli	x11,x11,0x10
800017b6:	00155813          	srli	x16,x10,0x1
800017ba:	8005                	srli	x8,x8,0x1
800017bc:	c781                	beqz	x15,800017c4 <calc_func+0x1260>
800017be:	8c39                	xor	x8,x8,x14
800017c0:	0442                	slli	x8,x8,0x10
800017c2:	8041                	srli	x8,x8,0x10
800017c4:	00884833          	xor	x16,x16,x8
800017c8:	00187813          	andi	x16,x16,1
800017cc:	00255793          	srli	x15,x10,0x2
800017d0:	8005                	srli	x8,x8,0x1
800017d2:	00080563          	beqz	x16,800017dc <calc_func+0x1278>
800017d6:	8c39                	xor	x8,x8,x14
800017d8:	0442                	slli	x8,x8,0x10
800017da:	8041                	srli	x8,x8,0x10
800017dc:	8fa1                	xor	x15,x15,x8
800017de:	8b85                	andi	x15,x15,1
800017e0:	00355813          	srli	x16,x10,0x3
800017e4:	8005                	srli	x8,x8,0x1
800017e6:	c781                	beqz	x15,800017ee <calc_func+0x128a>
800017e8:	8c39                	xor	x8,x8,x14
800017ea:	0442                	slli	x8,x8,0x10
800017ec:	8041                	srli	x8,x8,0x10
800017ee:	00884833          	xor	x16,x16,x8
800017f2:	00187813          	andi	x16,x16,1
800017f6:	00455793          	srli	x15,x10,0x4
800017fa:	8005                	srli	x8,x8,0x1
800017fc:	00080563          	beqz	x16,80001806 <calc_func+0x12a2>
80001800:	8c39                	xor	x8,x8,x14
80001802:	0442                	slli	x8,x8,0x10
80001804:	8041                	srli	x8,x8,0x10
80001806:	8fa1                	xor	x15,x15,x8
80001808:	8b85                	andi	x15,x15,1
8000180a:	00555813          	srli	x16,x10,0x5
8000180e:	8005                	srli	x8,x8,0x1
80001810:	c781                	beqz	x15,80001818 <calc_func+0x12b4>
80001812:	8c39                	xor	x8,x8,x14
80001814:	0442                	slli	x8,x8,0x10
80001816:	8041                	srli	x8,x8,0x10
80001818:	00884833          	xor	x16,x16,x8
8000181c:	00187813          	andi	x16,x16,1
80001820:	00655793          	srli	x15,x10,0x6
80001824:	8005                	srli	x8,x8,0x1
80001826:	00080563          	beqz	x16,80001830 <calc_func+0x12cc>
8000182a:	8c39                	xor	x8,x8,x14
8000182c:	0442                	slli	x8,x8,0x10
8000182e:	8041                	srli	x8,x8,0x10
80001830:	8fa1                	xor	x15,x15,x8
80001832:	8b85                	andi	x15,x15,1
80001834:	811d                	srli	x10,x10,0x7
80001836:	8005                	srli	x8,x8,0x1
80001838:	c781                	beqz	x15,80001840 <calc_func+0x12dc>
8000183a:	8c39                	xor	x8,x8,x14
8000183c:	0442                	slli	x8,x8,0x10
8000183e:	8041                	srli	x8,x8,0x10
80001840:	00147793          	andi	x15,x8,1
80001844:	8005                	srli	x8,x8,0x1
80001846:	00a78563          	beq	x15,x10,80001850 <calc_func+0x12ec>
8000184a:	8c39                	xor	x8,x8,x14
8000184c:	0442                	slli	x8,x8,0x10
8000184e:	8041                	srli	x8,x8,0x10
80001850:	81a1                	srli	x11,x11,0x8
80001852:	0085c533          	xor	x10,x11,x8
80001856:	0ff5f793          	andi	x15,x11,255
8000185a:	00157593          	andi	x11,x10,1
8000185e:	8005                	srli	x8,x8,0x1
80001860:	0017d513          	srli	x10,x15,0x1
80001864:	c581                	beqz	x11,8000186c <calc_func+0x1308>
80001866:	8c39                	xor	x8,x8,x14
80001868:	0442                	slli	x8,x8,0x10
8000186a:	8041                	srli	x8,x8,0x10
8000186c:	8d21                	xor	x10,x10,x8
8000186e:	8905                	andi	x10,x10,1
80001870:	0027d593          	srli	x11,x15,0x2
80001874:	8005                	srli	x8,x8,0x1
80001876:	c501                	beqz	x10,8000187e <calc_func+0x131a>
80001878:	8c39                	xor	x8,x8,x14
8000187a:	0442                	slli	x8,x8,0x10
8000187c:	8041                	srli	x8,x8,0x10
8000187e:	8da1                	xor	x11,x11,x8
80001880:	8985                	andi	x11,x11,1
80001882:	0037d513          	srli	x10,x15,0x3
80001886:	8005                	srli	x8,x8,0x1
80001888:	c581                	beqz	x11,80001890 <calc_func+0x132c>
8000188a:	8c39                	xor	x8,x8,x14
8000188c:	0442                	slli	x8,x8,0x10
8000188e:	8041                	srli	x8,x8,0x10
80001890:	8d21                	xor	x10,x10,x8
80001892:	8905                	andi	x10,x10,1
80001894:	0047d593          	srli	x11,x15,0x4
80001898:	8005                	srli	x8,x8,0x1
8000189a:	c501                	beqz	x10,800018a2 <calc_func+0x133e>
8000189c:	8c39                	xor	x8,x8,x14
8000189e:	0442                	slli	x8,x8,0x10
800018a0:	8041                	srli	x8,x8,0x10
800018a2:	8da1                	xor	x11,x11,x8
800018a4:	8985                	andi	x11,x11,1
800018a6:	0057d513          	srli	x10,x15,0x5
800018aa:	8005                	srli	x8,x8,0x1
800018ac:	c581                	beqz	x11,800018b4 <calc_func+0x1350>
800018ae:	8c39                	xor	x8,x8,x14
800018b0:	0442                	slli	x8,x8,0x10
800018b2:	8041                	srli	x8,x8,0x10
800018b4:	8d21                	xor	x10,x10,x8
800018b6:	8905                	andi	x10,x10,1
800018b8:	0067d593          	srli	x11,x15,0x6
800018bc:	8005                	srli	x8,x8,0x1
800018be:	c501                	beqz	x10,800018c6 <calc_func+0x1362>
800018c0:	8c39                	xor	x8,x8,x14
800018c2:	0442                	slli	x8,x8,0x10
800018c4:	8041                	srli	x8,x8,0x10
800018c6:	8da1                	xor	x11,x11,x8
800018c8:	8985                	andi	x11,x11,1
800018ca:	839d                	srli	x15,x15,0x7
800018cc:	8005                	srli	x8,x8,0x1
800018ce:	c581                	beqz	x11,800018d6 <calc_func+0x1372>
800018d0:	8c39                	xor	x8,x8,x14
800018d2:	0442                	slli	x8,x8,0x10
800018d4:	8041                	srli	x8,x8,0x10
800018d6:	00147593          	andi	x11,x8,1
800018da:	8005                	srli	x8,x8,0x1
800018dc:	00f58563          	beq	x11,x15,800018e6 <calc_func+0x1382>
800018e0:	8c39                	xor	x8,x8,x14
800018e2:	0442                	slli	x8,x8,0x10
800018e4:	8041                	srli	x8,x8,0x10
800018e6:	0691                	addi	x13,x13,4
800018e8:	0611                	addi	x12,x12,4
800018ea:	a8d491e3          	bne	x9,x13,8000136c <calc_func+0xe08>
800018ee:	46e2                	lw	x13,24(x2)
800018f0:	01041713          	slli	x14,x8,0x10
800018f4:	8741                	srai	x14,x14,0x10
800018f6:	03e6d783          	lhu	x15,62(x13) # ffffa03e <_stack_top+0x3fffa03e>
800018fa:	ef99                	bnez	x15,80001918 <calc_func+0x13b4>
800018fc:	02869f23          	sh	x8,62(x13)
80001900:	0386d403          	lhu	x8,56(x13)
80001904:	cb1fe06f          	j	800005b4 <calc_func+0x50>
80001908:	994e                	add	x18,x18,x19
8000190a:	de4a                	sw	x18,60(x2)
8000190c:	a3796fe3          	bltu	x18,x23,8000134a <calc_func+0xde6>
80001910:	bc91                	j	80001364 <calc_func+0xe00>
80001912:	86b2                	mv	x13,x12
80001914:	02f61e23          	sh	x15,60(x12)
80001918:	0386d403          	lhu	x8,56(x13)
8000191c:	c99fe06f          	j	800005b4 <calc_func+0x50>
80001920:	4681                	li	x13,0
80001922:	4781                	li	x15,0
80001924:	4701                	li	x14,0
80001926:	f4dfe06f          	j	80000872 <calc_func+0x30e>
8000192a:	4781                	li	x15,0
8000192c:	e20ff06f          	j	80000f4c <calc_func+0x9e8>
80001930:	4681                	li	x13,0
80001932:	4781                	li	x15,0
80001934:	bbcff06f          	j	80000cf0 <calc_func+0x78c>
80001938:	4681                	li	x13,0
8000193a:	4781                	li	x15,0
8000193c:	974ff06f          	j	80000ab0 <calc_func+0x54c>
80001940:	00094783          	lbu	x15,0(x18)
80001944:	9c079ae3          	bnez	x15,80001318 <calc_func+0xdb4>
80001948:	bc31                	j	80001364 <calc_func+0xe00>

8000194a <cmp_complex>:
8000194a:	1141                	addi	x2,x2,-16
8000194c:	c04a                	sw	x18,0(x2)
8000194e:	892e                	mv	x18,x11
80001950:	85b2                	mv	x11,x12
80001952:	c606                	sw	x1,12(x2)
80001954:	c422                	sw	x8,8(x2)
80001956:	c226                	sw	x9,4(x2)
80001958:	8432                	mv	x8,x12
8000195a:	fffff097          	auipc	x1,0xfffff
8000195e:	c0a080e7          	jalr	-1014(x1) # 80000564 <calc_func>
80001962:	84aa                	mv	x9,x10
80001964:	85a2                	mv	x11,x8
80001966:	854a                	mv	x10,x18
80001968:	fffff097          	auipc	x1,0xfffff
8000196c:	bfc080e7          	jalr	-1028(x1) # 80000564 <calc_func>
80001970:	40b2                	lw	x1,12(x2)
80001972:	4422                	lw	x8,8(x2)
80001974:	40a48533          	sub	x10,x9,x10
80001978:	4902                	lw	x18,0(x2)
8000197a:	4492                	lw	x9,4(x2)
8000197c:	0141                	addi	x2,x2,16
8000197e:	8082                	ret

80001980 <iterate>:
80001980:	4d5c                	lw	x15,28(x10)
80001982:	711d                	addi	x2,x2,-96
80001984:	ce86                	sw	x1,92(x2)
80001986:	cca2                	sw	x8,88(x2)
80001988:	caa6                	sw	x9,84(x2)
8000198a:	c8ca                	sw	x18,80(x2)
8000198c:	c6ce                	sw	x19,76(x2)
8000198e:	c4d2                	sw	x20,72(x2)
80001990:	c2d6                	sw	x21,68(x2)
80001992:	c0da                	sw	x22,64(x2)
80001994:	de5e                	sw	x23,60(x2)
80001996:	dc62                	sw	x24,56(x2)
80001998:	da66                	sw	x25,52(x2)
8000199a:	d86a                	sw	x26,48(x2)
8000199c:	d66e                	sw	x27,44(x2)
8000199e:	ca3e                	sw	x15,20(x2)
800019a0:	02052c23          	sw	x0,56(x10)
800019a4:	02052e23          	sw	x0,60(x10)
800019a8:	c602                	sw	x0,12(x2)
800019aa:	48078ee3          	beqz	x15,80002646 <iterate+0xcc6>
800019ae:	7969                	lui	x18,0xffffa
800019b0:	84aa                	mv	x9,x10
800019b2:	0905                	addi	x18,x18,1
800019b4:	00449883          	lh	x17,4(x9)
800019b8:	0244ad83          	lw	x27,36(x9)
800019bc:	4f1051e3          	blez	x17,8000269e <iterate+0xd1e>
800019c0:	4785                	li	x15,1
800019c2:	4501                	li	x10,0
800019c4:	4401                	li	x8,0
800019c6:	4801                	li	x16,0
800019c8:	4581                	li	x11,0
800019ca:	863e                	mv	x12,x15
800019cc:	0ff5f313          	andi	x6,x11,255
800019d0:	12064f63          	bltz	x12,80001b0e <iterate+0x18e>
800019d4:	120d8a63          	beqz	x27,80001b08 <iterate+0x188>
800019d8:	004da703          	lw	x14,4(x27)
800019dc:	87ee                	mv	x15,x27
800019de:	00271703          	lh	x14,2(x14) # ffffa002 <_stack_top+0x3fffa002>
800019e2:	00c71863          	bne	x14,x12,800019f2 <iterate+0x72>
800019e6:	a801                	j	800019f6 <iterate+0x76>
800019e8:	43d8                	lw	x14,4(x15)
800019ea:	00271703          	lh	x14,2(x14)
800019ee:	00c70463          	beq	x14,x12,800019f6 <iterate+0x76>
800019f2:	439c                	lw	x15,0(x15)
800019f4:	fbf5                	bnez	x15,800019e8 <iterate+0x68>
800019f6:	4681                	li	x13,0
800019f8:	a019                	j	800019fe <iterate+0x7e>
800019fa:	86ee                	mv	x13,x27
800019fc:	8dba                	mv	x27,x14
800019fe:	000da703          	lw	x14,0(x27)
80001a02:	00dda023          	sw	x13,0(x27)
80001a06:	fb75                	bnez	x14,800019fa <iterate+0x7a>
80001a08:	12078563          	beqz	x15,80001b32 <iterate+0x1b2>
80001a0c:	43d4                	lw	x13,4(x15)
80001a0e:	0505                	addi	x10,x10,1
80001a10:	0542                	slli	x10,x10,0x10
80001a12:	00069703          	lh	x14,0(x13)
80001a16:	8141                	srli	x10,x10,0x10
80001a18:	00177693          	andi	x13,x14,1
80001a1c:	c699                	beqz	x13,80001a2a <iterate+0xaa>
80001a1e:	8725                	srai	x14,x14,0x9
80001a20:	8b05                	andi	x14,x14,1
80001a22:	9722                	add	x14,x14,x8
80001a24:	01071413          	slli	x8,x14,0x10
80001a28:	8041                	srli	x8,x8,0x10
80001a2a:	4394                	lw	x13,0(x15)
80001a2c:	ca81                	beqz	x13,80001a3c <iterate+0xbc>
80001a2e:	4298                	lw	x14,0(x13)
80001a30:	c398                	sw	x14,0(x15)
80001a32:	000da783          	lw	x15,0(x27)
80001a36:	c29c                	sw	x15,0(x13)
80001a38:	00dda023          	sw	x13,0(x27)
80001a3c:	00064563          	bltz	x12,80001a46 <iterate+0xc6>
80001a40:	0605                	addi	x12,x12,1
80001a42:	0642                	slli	x12,x12,0x10
80001a44:	8641                	srai	x12,x12,0x10
80001a46:	00158793          	addi	x15,x11,1 # ffffa001 <_stack_top+0x3fffa001>
80001a4a:	01079593          	slli	x11,x15,0x10
80001a4e:	85c1                	srai	x11,x11,0x10
80001a50:	f6b89ee3          	bne	x17,x11,800019cc <iterate+0x4c>
80001a54:	00251793          	slli	x15,x10,0x2
80001a58:	410787b3          	sub	x15,x15,x16
80001a5c:	97a2                	add	x15,x15,x8
80001a5e:	07c2                	slli	x15,x15,0x10
80001a60:	83c1                	srli	x15,x15,0x10
80001a62:	c832                	sw	x12,16(x2)
80001a64:	ce1a                	sw	x6,28(x2)
80001a66:	c43e                	sw	x15,8(x2)
80001a68:	4c05                	li	x24,1
80001a6a:	080d8c63          	beqz	x27,80001b02 <iterate+0x182>
80001a6e:	4a01                	li	x20,0
80001a70:	4a81                	li	x21,0
80001a72:	4c81                	li	x25,0
80001a74:	0c85                	addi	x25,x25,1
80001a76:	846e                	mv	x8,x27
80001a78:	4981                	li	x19,0
80001a7a:	4000                	lw	x8,0(x8)
80001a7c:	0985                	addi	x19,x19,1
80001a7e:	c019                	beqz	x8,80001a84 <iterate+0x104>
80001a80:	ff899de3          	bne	x19,x24,80001a7a <iterate+0xfa>
80001a84:	8b62                	mv	x22,x24
80001a86:	04098363          	beqz	x19,80001acc <iterate+0x14c>
80001a8a:	040b0c63          	beqz	x22,80001ae2 <iterate+0x162>
80001a8e:	c831                	beqz	x8,80001ae2 <iterate+0x162>
80001a90:	004da503          	lw	x10,4(x27)
80001a94:	00442d03          	lw	x26,4(x8)
80001a98:	85a6                	mv	x11,x9
80001a9a:	fffff097          	auipc	x1,0xfffff
80001a9e:	aca080e7          	jalr	-1334(x1) # 80000564 <calc_func>
80001aa2:	8baa                	mv	x23,x10
80001aa4:	85a6                	mv	x11,x9
80001aa6:	856a                	mv	x10,x26
80001aa8:	fffff097          	auipc	x1,0xfffff
80001aac:	abc080e7          	jalr	-1348(x1) # 80000564 <calc_func>
80001ab0:	40ab8533          	sub	x10,x23,x10
80001ab4:	02a05763          	blez	x10,80001ae2 <iterate+0x162>
80001ab8:	87a2                	mv	x15,x8
80001aba:	4000                	lw	x8,0(x8)
80001abc:	1b7d                	addi	x22,x22,-1
80001abe:	000a0f63          	beqz	x20,80001adc <iterate+0x15c>
80001ac2:	00fa2023          	sw	x15,0(x20) # fffff000 <_stack_top+0x3ffff000>
80001ac6:	8a3e                	mv	x20,x15
80001ac8:	fc0991e3          	bnez	x19,80001a8a <iterate+0x10a>
80001acc:	020b0063          	beqz	x22,80001aec <iterate+0x16c>
80001ad0:	c005                	beqz	x8,80001af0 <iterate+0x170>
80001ad2:	87a2                	mv	x15,x8
80001ad4:	1b7d                	addi	x22,x22,-1
80001ad6:	4000                	lw	x8,0(x8)
80001ad8:	fe0a15e3          	bnez	x20,80001ac2 <iterate+0x142>
80001adc:	8abe                	mv	x21,x15
80001ade:	8a3e                	mv	x20,x15
80001ae0:	b7e5                	j	80001ac8 <iterate+0x148>
80001ae2:	87ee                	mv	x15,x27
80001ae4:	19fd                	addi	x19,x19,-1
80001ae6:	000dad83          	lw	x27,0(x27)
80001aea:	bfd1                	j	80001abe <iterate+0x13e>
80001aec:	8da2                	mv	x27,x8
80001aee:	f059                	bnez	x8,80001a74 <iterate+0xf4>
80001af0:	000a2023          	sw	x0,0(x20)
80001af4:	4785                	li	x15,1
80001af6:	04fc8b63          	beq	x25,x15,80001b4c <iterate+0x1cc>
80001afa:	8dd6                	mv	x27,x21
80001afc:	0c06                	slli	x24,x24,0x1
80001afe:	f60d98e3          	bnez	x27,80001a6e <iterate+0xee>
80001b02:	00002023          	sw	x0,0(x0) # 0 <_text_start-0x80000000>
80001b06:	9002                	ebreak
80001b08:	00002783          	lw	x15,0(x0) # 0 <_text_start-0x80000000>
80001b0c:	9002                	ebreak
80001b0e:	fe0d8de3          	beqz	x27,80001b08 <iterate+0x188>
80001b12:	004da703          	lw	x14,4(x27)
80001b16:	87ee                	mv	x15,x27
80001b18:	00074703          	lbu	x14,0(x14)
80001b1c:	00e31863          	bne	x6,x14,80001b2c <iterate+0x1ac>
80001b20:	bdd9                	j	800019f6 <iterate+0x76>
80001b22:	43d8                	lw	x14,4(x15)
80001b24:	00074703          	lbu	x14,0(x14)
80001b28:	ec6707e3          	beq	x14,x6,800019f6 <iterate+0x76>
80001b2c:	439c                	lw	x15,0(x15)
80001b2e:	fbf5                	bnez	x15,80001b22 <iterate+0x1a2>
80001b30:	b5d9                	j	800019f6 <iterate+0x76>
80001b32:	42dc                	lw	x15,4(x13)
80001b34:	0805                	addi	x16,x16,1
80001b36:	0842                	slli	x16,x16,0x10
80001b38:	00178703          	lb	x14,1(x15)
80001b3c:	01085813          	srli	x16,x16,0x10
80001b40:	8b05                	andi	x14,x14,1
80001b42:	9722                	add	x14,x14,x8
80001b44:	01071413          	slli	x8,x14,0x10
80001b48:	8041                	srli	x8,x8,0x10
80001b4a:	bdcd                	j	80001a3c <iterate+0xbc>
80001b4c:	000aa703          	lw	x14,0(x21)
80001b50:	87d6                	mv	x15,x21
80001b52:	00072883          	lw	x17,0(x14)
80001b56:	00472c03          	lw	x24,4(x14)
80001b5a:	0048a603          	lw	x12,4(x17)
80001b5e:	0008a683          	lw	x13,0(x17)
80001b62:	c350                	sw	x12,4(x14)
80001b64:	0188a223          	sw	x24,4(x17)
80001b68:	c314                	sw	x13,0(x14)
80001b6a:	4742                	lw	x14,16(x2)
80001b6c:	0008a023          	sw	x0,0(x17)
80001b70:	86ba                	mv	x13,x14
80001b72:	30074ce3          	bltz	x14,8000268a <iterate+0xd0a>
80001b76:	43d8                	lw	x14,4(x15)
80001b78:	00271703          	lh	x14,2(x14)
80001b7c:	30d703e3          	beq	x14,x13,80002682 <iterate+0xd02>
80001b80:	439c                	lw	x15,0(x15)
80001b82:	fbf5                	bnez	x15,80001b76 <iterate+0x1f6>
80001b84:	000aa803          	lw	x16,0(x21)
80001b88:	87c2                	mv	x15,x16
80001b8a:	1a080d63          	beqz	x16,80001d44 <iterate+0x3c4>
80001b8e:	004aa703          	lw	x14,4(x21)
80001b92:	4422                	lw	x8,8(x2)
80001b94:	00071583          	lh	x11,0(x14)
80001b98:	01059613          	slli	x12,x11,0x10
80001b9c:	8241                	srli	x12,x12,0x10
80001b9e:	8221                	srli	x12,x12,0x8
80001ba0:	0ff5f693          	andi	x13,x11,255
80001ba4:	0ff67713          	andi	x14,x12,255
80001ba8:	05e2                	slli	x11,x11,0x18
80001baa:	0662                	slli	x12,x12,0x18
80001bac:	0016dc93          	srli	x25,x13,0x1
80001bb0:	0026db93          	srli	x23,x13,0x2
80001bb4:	0036db13          	srli	x22,x13,0x3
80001bb8:	0046d093          	srli	x1,x13,0x4
80001bbc:	0056d393          	srli	x7,x13,0x5
80001bc0:	0066d293          	srli	x5,x13,0x6
80001bc4:	00175f93          	srli	x31,x14,0x1
80001bc8:	00275f13          	srli	x30,x14,0x2
80001bcc:	00375e93          	srli	x29,x14,0x3
80001bd0:	00475e13          	srli	x28,x14,0x4
80001bd4:	00575313          	srli	x6,x14,0x5
80001bd8:	00675513          	srli	x10,x14,0x6
80001bdc:	85e1                	srai	x11,x11,0x18
80001bde:	829d                	srli	x13,x13,0x7
80001be0:	8661                	srai	x12,x12,0x18
80001be2:	831d                	srli	x14,x14,0x7
80001be4:	0085c9b3          	xor	x19,x11,x8
80001be8:	0019f993          	andi	x19,x19,1
80001bec:	8005                	srli	x8,x8,0x1
80001bee:	00098663          	beqz	x19,80001bfa <iterate+0x27a>
80001bf2:	01244433          	xor	x8,x8,x18
80001bf6:	0442                	slli	x8,x8,0x10
80001bf8:	8041                	srli	x8,x8,0x10
80001bfa:	008cc9b3          	xor	x19,x25,x8
80001bfe:	0019f993          	andi	x19,x19,1
80001c02:	8005                	srli	x8,x8,0x1
80001c04:	00098663          	beqz	x19,80001c10 <iterate+0x290>
80001c08:	01244433          	xor	x8,x8,x18
80001c0c:	0442                	slli	x8,x8,0x10
80001c0e:	8041                	srli	x8,x8,0x10
80001c10:	008bc9b3          	xor	x19,x23,x8
80001c14:	0019f993          	andi	x19,x19,1
80001c18:	8005                	srli	x8,x8,0x1
80001c1a:	00098663          	beqz	x19,80001c26 <iterate+0x2a6>
80001c1e:	01244433          	xor	x8,x8,x18
80001c22:	0442                	slli	x8,x8,0x10
80001c24:	8041                	srli	x8,x8,0x10
80001c26:	008b49b3          	xor	x19,x22,x8
80001c2a:	0019f993          	andi	x19,x19,1
80001c2e:	8005                	srli	x8,x8,0x1
80001c30:	00098663          	beqz	x19,80001c3c <iterate+0x2bc>
80001c34:	01244433          	xor	x8,x8,x18
80001c38:	0442                	slli	x8,x8,0x10
80001c3a:	8041                	srli	x8,x8,0x10
80001c3c:	0080c9b3          	xor	x19,x1,x8
80001c40:	0019f993          	andi	x19,x19,1
80001c44:	8005                	srli	x8,x8,0x1
80001c46:	00098663          	beqz	x19,80001c52 <iterate+0x2d2>
80001c4a:	01244433          	xor	x8,x8,x18
80001c4e:	0442                	slli	x8,x8,0x10
80001c50:	8041                	srli	x8,x8,0x10
80001c52:	0083c9b3          	xor	x19,x7,x8
80001c56:	0019f993          	andi	x19,x19,1
80001c5a:	8005                	srli	x8,x8,0x1
80001c5c:	00098663          	beqz	x19,80001c68 <iterate+0x2e8>
80001c60:	01244433          	xor	x8,x8,x18
80001c64:	0442                	slli	x8,x8,0x10
80001c66:	8041                	srli	x8,x8,0x10
80001c68:	0082c9b3          	xor	x19,x5,x8
80001c6c:	0019f993          	andi	x19,x19,1
80001c70:	8005                	srli	x8,x8,0x1
80001c72:	00098663          	beqz	x19,80001c7e <iterate+0x2fe>
80001c76:	01244433          	xor	x8,x8,x18
80001c7a:	0442                	slli	x8,x8,0x10
80001c7c:	8041                	srli	x8,x8,0x10
80001c7e:	00147993          	andi	x19,x8,1
80001c82:	8005                	srli	x8,x8,0x1
80001c84:	00d98663          	beq	x19,x13,80001c90 <iterate+0x310>
80001c88:	01244433          	xor	x8,x8,x18
80001c8c:	0442                	slli	x8,x8,0x10
80001c8e:	8041                	srli	x8,x8,0x10
80001c90:	008649b3          	xor	x19,x12,x8
80001c94:	0019f993          	andi	x19,x19,1
80001c98:	8005                	srli	x8,x8,0x1
80001c9a:	00098663          	beqz	x19,80001ca6 <iterate+0x326>
80001c9e:	01244433          	xor	x8,x8,x18
80001ca2:	0442                	slli	x8,x8,0x10
80001ca4:	8041                	srli	x8,x8,0x10
80001ca6:	008fc9b3          	xor	x19,x31,x8
80001caa:	0019f993          	andi	x19,x19,1
80001cae:	8005                	srli	x8,x8,0x1
80001cb0:	00098663          	beqz	x19,80001cbc <iterate+0x33c>
80001cb4:	01244433          	xor	x8,x8,x18
80001cb8:	0442                	slli	x8,x8,0x10
80001cba:	8041                	srli	x8,x8,0x10
80001cbc:	008f49b3          	xor	x19,x30,x8
80001cc0:	0019f993          	andi	x19,x19,1
80001cc4:	8005                	srli	x8,x8,0x1
80001cc6:	00098663          	beqz	x19,80001cd2 <iterate+0x352>
80001cca:	01244433          	xor	x8,x8,x18
80001cce:	0442                	slli	x8,x8,0x10
80001cd0:	8041                	srli	x8,x8,0x10
80001cd2:	008ec9b3          	xor	x19,x29,x8
80001cd6:	0019f993          	andi	x19,x19,1
80001cda:	8005                	srli	x8,x8,0x1
80001cdc:	00098663          	beqz	x19,80001ce8 <iterate+0x368>
80001ce0:	01244433          	xor	x8,x8,x18
80001ce4:	0442                	slli	x8,x8,0x10
80001ce6:	8041                	srli	x8,x8,0x10
80001ce8:	008e49b3          	xor	x19,x28,x8
80001cec:	0019f993          	andi	x19,x19,1
80001cf0:	8005                	srli	x8,x8,0x1
80001cf2:	00098663          	beqz	x19,80001cfe <iterate+0x37e>
80001cf6:	01244433          	xor	x8,x8,x18
80001cfa:	0442                	slli	x8,x8,0x10
80001cfc:	8041                	srli	x8,x8,0x10
80001cfe:	008349b3          	xor	x19,x6,x8
80001d02:	0019f993          	andi	x19,x19,1
80001d06:	8005                	srli	x8,x8,0x1
80001d08:	00098663          	beqz	x19,80001d14 <iterate+0x394>
80001d0c:	01244433          	xor	x8,x8,x18
80001d10:	0442                	slli	x8,x8,0x10
80001d12:	8041                	srli	x8,x8,0x10
80001d14:	008549b3          	xor	x19,x10,x8
80001d18:	0019f993          	andi	x19,x19,1
80001d1c:	8005                	srli	x8,x8,0x1
80001d1e:	00098663          	beqz	x19,80001d2a <iterate+0x3aa>
80001d22:	01244433          	xor	x8,x8,x18
80001d26:	0442                	slli	x8,x8,0x10
80001d28:	8041                	srli	x8,x8,0x10
80001d2a:	00147993          	andi	x19,x8,1
80001d2e:	8005                	srli	x8,x8,0x1
80001d30:	00e98663          	beq	x19,x14,80001d3c <iterate+0x3bc>
80001d34:	01244433          	xor	x8,x8,x18
80001d38:	0442                	slli	x8,x8,0x10
80001d3a:	8041                	srli	x8,x8,0x10
80001d3c:	439c                	lw	x15,0(x15)
80001d3e:	ea0793e3          	bnez	x15,80001be4 <iterate+0x264>
80001d42:	c422                	sw	x8,8(x2)
80001d44:	00482703          	lw	x14,4(x16)
80001d48:	00082783          	lw	x15,0(x16)
80001d4c:	8556                	mv	x10,x21
80001d4e:	00e8a223          	sw	x14,4(x17)
80001d52:	01882223          	sw	x24,4(x16)
80001d56:	00f8a023          	sw	x15,0(x17)
80001d5a:	01182023          	sw	x17,0(x16)
80001d5e:	ffffe097          	auipc	x1,0xffffe
80001d62:	38c080e7          	jalr	908(x1) # 800000ea <core_list_mergesort.constprop.4>
80001d66:	411c                	lw	x15,0(x10)
80001d68:	1a078c63          	beqz	x15,80001f20 <iterate+0x5a0>
80001d6c:	4158                	lw	x14,4(x10)
80001d6e:	4422                	lw	x8,8(x2)
80001d70:	00071583          	lh	x11,0(x14)
80001d74:	01059613          	slli	x12,x11,0x10
80001d78:	8241                	srli	x12,x12,0x10
80001d7a:	8221                	srli	x12,x12,0x8
80001d7c:	0ff5f693          	andi	x13,x11,255
80001d80:	0ff67713          	andi	x14,x12,255
80001d84:	05e2                	slli	x11,x11,0x18
80001d86:	0662                	slli	x12,x12,0x18
80001d88:	0016da93          	srli	x21,x13,0x1
80001d8c:	0026d093          	srli	x1,x13,0x2
80001d90:	0036d393          	srli	x7,x13,0x3
80001d94:	0046d293          	srli	x5,x13,0x4
80001d98:	0056df93          	srli	x31,x13,0x5
80001d9c:	0066df13          	srli	x30,x13,0x6
80001da0:	00175e93          	srli	x29,x14,0x1
80001da4:	00275e13          	srli	x28,x14,0x2
80001da8:	00375313          	srli	x6,x14,0x3
80001dac:	00475893          	srli	x17,x14,0x4
80001db0:	00575813          	srli	x16,x14,0x5
80001db4:	00675513          	srli	x10,x14,0x6
80001db8:	85e1                	srai	x11,x11,0x18
80001dba:	829d                	srli	x13,x13,0x7
80001dbc:	8661                	srai	x12,x12,0x18
80001dbe:	831d                	srli	x14,x14,0x7
80001dc0:	0085c9b3          	xor	x19,x11,x8
80001dc4:	0019f993          	andi	x19,x19,1
80001dc8:	8005                	srli	x8,x8,0x1
80001dca:	00098663          	beqz	x19,80001dd6 <iterate+0x456>
80001dce:	01244433          	xor	x8,x8,x18
80001dd2:	0442                	slli	x8,x8,0x10
80001dd4:	8041                	srli	x8,x8,0x10
80001dd6:	008ac9b3          	xor	x19,x21,x8
80001dda:	0019f993          	andi	x19,x19,1
80001dde:	8005                	srli	x8,x8,0x1
80001de0:	00098663          	beqz	x19,80001dec <iterate+0x46c>
80001de4:	01244433          	xor	x8,x8,x18
80001de8:	0442                	slli	x8,x8,0x10
80001dea:	8041                	srli	x8,x8,0x10
80001dec:	0080c9b3          	xor	x19,x1,x8
80001df0:	0019f993          	andi	x19,x19,1
80001df4:	8005                	srli	x8,x8,0x1
80001df6:	00098663          	beqz	x19,80001e02 <iterate+0x482>
80001dfa:	01244433          	xor	x8,x8,x18
80001dfe:	0442                	slli	x8,x8,0x10
80001e00:	8041                	srli	x8,x8,0x10
80001e02:	0083c9b3          	xor	x19,x7,x8
80001e06:	0019f993          	andi	x19,x19,1
80001e0a:	8005                	srli	x8,x8,0x1
80001e0c:	00098663          	beqz	x19,80001e18 <iterate+0x498>
80001e10:	01244433          	xor	x8,x8,x18
80001e14:	0442                	slli	x8,x8,0x10
80001e16:	8041                	srli	x8,x8,0x10
80001e18:	0082c9b3          	xor	x19,x5,x8
80001e1c:	0019f993          	andi	x19,x19,1
80001e20:	8005                	srli	x8,x8,0x1
80001e22:	00098663          	beqz	x19,80001e2e <iterate+0x4ae>
80001e26:	01244433          	xor	x8,x8,x18
80001e2a:	0442                	slli	x8,x8,0x10
80001e2c:	8041                	srli	x8,x8,0x10
80001e2e:	008fc9b3          	xor	x19,x31,x8
80001e32:	0019f993          	andi	x19,x19,1
80001e36:	8005                	srli	x8,x8,0x1
80001e38:	00098663          	beqz	x19,80001e44 <iterate+0x4c4>
80001e3c:	01244433          	xor	x8,x8,x18
80001e40:	0442                	slli	x8,x8,0x10
80001e42:	8041                	srli	x8,x8,0x10
80001e44:	008f49b3          	xor	x19,x30,x8
80001e48:	0019f993          	andi	x19,x19,1
80001e4c:	8005                	srli	x8,x8,0x1
80001e4e:	00098663          	beqz	x19,80001e5a <iterate+0x4da>
80001e52:	01244433          	xor	x8,x8,x18
80001e56:	0442                	slli	x8,x8,0x10
80001e58:	8041                	srli	x8,x8,0x10
80001e5a:	00147993          	andi	x19,x8,1
80001e5e:	8005                	srli	x8,x8,0x1
80001e60:	00d98663          	beq	x19,x13,80001e6c <iterate+0x4ec>
80001e64:	01244433          	xor	x8,x8,x18
80001e68:	0442                	slli	x8,x8,0x10
80001e6a:	8041                	srli	x8,x8,0x10
80001e6c:	008649b3          	xor	x19,x12,x8
80001e70:	0019f993          	andi	x19,x19,1
80001e74:	8005                	srli	x8,x8,0x1
80001e76:	00098663          	beqz	x19,80001e82 <iterate+0x502>
80001e7a:	01244433          	xor	x8,x8,x18
80001e7e:	0442                	slli	x8,x8,0x10
80001e80:	8041                	srli	x8,x8,0x10
80001e82:	008ec9b3          	xor	x19,x29,x8
80001e86:	0019f993          	andi	x19,x19,1
80001e8a:	8005                	srli	x8,x8,0x1
80001e8c:	00098663          	beqz	x19,80001e98 <iterate+0x518>
80001e90:	01244433          	xor	x8,x8,x18
80001e94:	0442                	slli	x8,x8,0x10
80001e96:	8041                	srli	x8,x8,0x10
80001e98:	008e49b3          	xor	x19,x28,x8
80001e9c:	0019f993          	andi	x19,x19,1
80001ea0:	8005                	srli	x8,x8,0x1
80001ea2:	00098663          	beqz	x19,80001eae <iterate+0x52e>
80001ea6:	01244433          	xor	x8,x8,x18
80001eaa:	0442                	slli	x8,x8,0x10
80001eac:	8041                	srli	x8,x8,0x10
80001eae:	008349b3          	xor	x19,x6,x8
80001eb2:	0019f993          	andi	x19,x19,1
80001eb6:	8005                	srli	x8,x8,0x1
80001eb8:	00098663          	beqz	x19,80001ec4 <iterate+0x544>
80001ebc:	01244433          	xor	x8,x8,x18
80001ec0:	0442                	slli	x8,x8,0x10
80001ec2:	8041                	srli	x8,x8,0x10
80001ec4:	0088c9b3          	xor	x19,x17,x8
80001ec8:	0019f993          	andi	x19,x19,1
80001ecc:	8005                	srli	x8,x8,0x1
80001ece:	00098663          	beqz	x19,80001eda <iterate+0x55a>
80001ed2:	01244433          	xor	x8,x8,x18
80001ed6:	0442                	slli	x8,x8,0x10
80001ed8:	8041                	srli	x8,x8,0x10
80001eda:	008849b3          	xor	x19,x16,x8
80001ede:	0019f993          	andi	x19,x19,1
80001ee2:	8005                	srli	x8,x8,0x1
80001ee4:	00098663          	beqz	x19,80001ef0 <iterate+0x570>
80001ee8:	01244433          	xor	x8,x8,x18
80001eec:	0442                	slli	x8,x8,0x10
80001eee:	8041                	srli	x8,x8,0x10
80001ef0:	008549b3          	xor	x19,x10,x8
80001ef4:	0019f993          	andi	x19,x19,1
80001ef8:	8005                	srli	x8,x8,0x1
80001efa:	00098663          	beqz	x19,80001f06 <iterate+0x586>
80001efe:	01244433          	xor	x8,x8,x18
80001f02:	0442                	slli	x8,x8,0x10
80001f04:	8041                	srli	x8,x8,0x10
80001f06:	00147993          	andi	x19,x8,1
80001f0a:	8005                	srli	x8,x8,0x1
80001f0c:	00e98663          	beq	x19,x14,80001f18 <iterate+0x598>
80001f10:	01244433          	xor	x8,x8,x18
80001f14:	0442                	slli	x8,x8,0x10
80001f16:	8041                	srli	x8,x8,0x10
80001f18:	439c                	lw	x15,0(x15)
80001f1a:	ea0793e3          	bnez	x15,80001dc0 <iterate+0x440>
80001f1e:	c422                	sw	x8,8(x2)
80001f20:	0384d783          	lhu	x15,56(x9)
80001f24:	46a2                	lw	x13,8(x2)
80001f26:	0ff6f713          	andi	x14,x13,255
80001f2a:	8ebd                	xor	x13,x13,x15
80001f2c:	8a85                	andi	x13,x13,1
80001f2e:	00175613          	srli	x12,x14,0x1
80001f32:	8385                	srli	x15,x15,0x1
80001f34:	c689                	beqz	x13,80001f3e <iterate+0x5be>
80001f36:	0127c7b3          	xor	x15,x15,x18
80001f3a:	07c2                	slli	x15,x15,0x10
80001f3c:	83c1                	srli	x15,x15,0x10
80001f3e:	8e3d                	xor	x12,x12,x15
80001f40:	8a05                	andi	x12,x12,1
80001f42:	00275693          	srli	x13,x14,0x2
80001f46:	8385                	srli	x15,x15,0x1
80001f48:	c609                	beqz	x12,80001f52 <iterate+0x5d2>
80001f4a:	0127c7b3          	xor	x15,x15,x18
80001f4e:	07c2                	slli	x15,x15,0x10
80001f50:	83c1                	srli	x15,x15,0x10
80001f52:	8ebd                	xor	x13,x13,x15
80001f54:	8a85                	andi	x13,x13,1
80001f56:	00375613          	srli	x12,x14,0x3
80001f5a:	8385                	srli	x15,x15,0x1
80001f5c:	c689                	beqz	x13,80001f66 <iterate+0x5e6>
80001f5e:	0127c7b3          	xor	x15,x15,x18
80001f62:	07c2                	slli	x15,x15,0x10
80001f64:	83c1                	srli	x15,x15,0x10
80001f66:	8e3d                	xor	x12,x12,x15
80001f68:	8a05                	andi	x12,x12,1
80001f6a:	00475693          	srli	x13,x14,0x4
80001f6e:	8385                	srli	x15,x15,0x1
80001f70:	c609                	beqz	x12,80001f7a <iterate+0x5fa>
80001f72:	0127c7b3          	xor	x15,x15,x18
80001f76:	07c2                	slli	x15,x15,0x10
80001f78:	83c1                	srli	x15,x15,0x10
80001f7a:	8ebd                	xor	x13,x13,x15
80001f7c:	8a85                	andi	x13,x13,1
80001f7e:	00575613          	srli	x12,x14,0x5
80001f82:	8385                	srli	x15,x15,0x1
80001f84:	c689                	beqz	x13,80001f8e <iterate+0x60e>
80001f86:	0127c7b3          	xor	x15,x15,x18
80001f8a:	07c2                	slli	x15,x15,0x10
80001f8c:	83c1                	srli	x15,x15,0x10
80001f8e:	8e3d                	xor	x12,x12,x15
80001f90:	8a05                	andi	x12,x12,1
80001f92:	00675693          	srli	x13,x14,0x6
80001f96:	8385                	srli	x15,x15,0x1
80001f98:	c609                	beqz	x12,80001fa2 <iterate+0x622>
80001f9a:	0127c7b3          	xor	x15,x15,x18
80001f9e:	07c2                	slli	x15,x15,0x10
80001fa0:	83c1                	srli	x15,x15,0x10
80001fa2:	8ebd                	xor	x13,x13,x15
80001fa4:	8a85                	andi	x13,x13,1
80001fa6:	831d                	srli	x14,x14,0x7
80001fa8:	8385                	srli	x15,x15,0x1
80001faa:	c689                	beqz	x13,80001fb4 <iterate+0x634>
80001fac:	0127c7b3          	xor	x15,x15,x18
80001fb0:	07c2                	slli	x15,x15,0x10
80001fb2:	83c1                	srli	x15,x15,0x10
80001fb4:	0017f693          	andi	x13,x15,1
80001fb8:	8385                	srli	x15,x15,0x1
80001fba:	00e68663          	beq	x13,x14,80001fc6 <iterate+0x646>
80001fbe:	0127c7b3          	xor	x15,x15,x18
80001fc2:	07c2                	slli	x15,x15,0x10
80001fc4:	83c1                	srli	x15,x15,0x10
80001fc6:	4722                	lw	x14,8(x2)
80001fc8:	8321                	srli	x14,x14,0x8
80001fca:	00e7c6b3          	xor	x13,x15,x14
80001fce:	8a85                	andi	x13,x13,1
80001fd0:	0ff77713          	andi	x14,x14,255
80001fd4:	00175613          	srli	x12,x14,0x1
80001fd8:	8385                	srli	x15,x15,0x1
80001fda:	c689                	beqz	x13,80001fe4 <iterate+0x664>
80001fdc:	0127c7b3          	xor	x15,x15,x18
80001fe0:	07c2                	slli	x15,x15,0x10
80001fe2:	83c1                	srli	x15,x15,0x10
80001fe4:	8e3d                	xor	x12,x12,x15
80001fe6:	8a05                	andi	x12,x12,1
80001fe8:	00275693          	srli	x13,x14,0x2
80001fec:	8385                	srli	x15,x15,0x1
80001fee:	c609                	beqz	x12,80001ff8 <iterate+0x678>
80001ff0:	0127c7b3          	xor	x15,x15,x18
80001ff4:	07c2                	slli	x15,x15,0x10
80001ff6:	83c1                	srli	x15,x15,0x10
80001ff8:	8ebd                	xor	x13,x13,x15
80001ffa:	8a85                	andi	x13,x13,1
80001ffc:	00375613          	srli	x12,x14,0x3
80002000:	8385                	srli	x15,x15,0x1
80002002:	c689                	beqz	x13,8000200c <iterate+0x68c>
80002004:	0127c7b3          	xor	x15,x15,x18
80002008:	07c2                	slli	x15,x15,0x10
8000200a:	83c1                	srli	x15,x15,0x10
8000200c:	8e3d                	xor	x12,x12,x15
8000200e:	8a05                	andi	x12,x12,1
80002010:	00475693          	srli	x13,x14,0x4
80002014:	8385                	srli	x15,x15,0x1
80002016:	c609                	beqz	x12,80002020 <iterate+0x6a0>
80002018:	0127c7b3          	xor	x15,x15,x18
8000201c:	07c2                	slli	x15,x15,0x10
8000201e:	83c1                	srli	x15,x15,0x10
80002020:	8ebd                	xor	x13,x13,x15
80002022:	8a85                	andi	x13,x13,1
80002024:	00575613          	srli	x12,x14,0x5
80002028:	8385                	srli	x15,x15,0x1
8000202a:	c689                	beqz	x13,80002034 <iterate+0x6b4>
8000202c:	0127c7b3          	xor	x15,x15,x18
80002030:	07c2                	slli	x15,x15,0x10
80002032:	83c1                	srli	x15,x15,0x10
80002034:	8e3d                	xor	x12,x12,x15
80002036:	8a05                	andi	x12,x12,1
80002038:	00675693          	srli	x13,x14,0x6
8000203c:	8385                	srli	x15,x15,0x1
8000203e:	c609                	beqz	x12,80002048 <iterate+0x6c8>
80002040:	0127c7b3          	xor	x15,x15,x18
80002044:	07c2                	slli	x15,x15,0x10
80002046:	83c1                	srli	x15,x15,0x10
80002048:	8ebd                	xor	x13,x13,x15
8000204a:	8a85                	andi	x13,x13,1
8000204c:	831d                	srli	x14,x14,0x7
8000204e:	8385                	srli	x15,x15,0x1
80002050:	c689                	beqz	x13,8000205a <iterate+0x6da>
80002052:	0127c7b3          	xor	x15,x15,x18
80002056:	07c2                	slli	x15,x15,0x10
80002058:	83c1                	srli	x15,x15,0x10
8000205a:	0017f693          	andi	x13,x15,1
8000205e:	8385                	srli	x15,x15,0x1
80002060:	00e68663          	beq	x13,x14,8000206c <iterate+0x6ec>
80002064:	0127c7b3          	xor	x15,x15,x18
80002068:	07c2                	slli	x15,x15,0x10
8000206a:	83c1                	srli	x15,x15,0x10
8000206c:	00449e03          	lh	x28,4(x9)
80002070:	02f49c23          	sh	x15,56(x9)
80002074:	50c8                	lw	x10,36(x9)
80002076:	63c05d63          	blez	x28,800026b0 <iterate+0xd30>
8000207a:	4581                	li	x11,0
8000207c:	4801                	li	x16,0
8000207e:	4881                	li	x17,0
80002080:	4601                	li	x12,0
80002082:	a80503e3          	beqz	x10,80001b08 <iterate+0x188>
80002086:	415c                	lw	x15,4(x10)
80002088:	0ff67e93          	andi	x29,x12,255
8000208c:	86aa                	mv	x13,x10
8000208e:	0007c783          	lbu	x15,0(x15)
80002092:	01d79863          	bne	x15,x29,800020a2 <iterate+0x722>
80002096:	a801                	j	800020a6 <iterate+0x726>
80002098:	42dc                	lw	x15,4(x13)
8000209a:	0007c783          	lbu	x15,0(x15)
8000209e:	01d78463          	beq	x15,x29,800020a6 <iterate+0x726>
800020a2:	4294                	lw	x13,0(x13)
800020a4:	faf5                	bnez	x13,80002098 <iterate+0x718>
800020a6:	4701                	li	x14,0
800020a8:	a019                	j	800020ae <iterate+0x72e>
800020aa:	872a                	mv	x14,x10
800020ac:	853e                	mv	x10,x15
800020ae:	411c                	lw	x15,0(x10)
800020b0:	c118                	sw	x14,0(x10)
800020b2:	ffe5                	bnez	x15,800020aa <iterate+0x72a>
800020b4:	5a068963          	beqz	x13,80002666 <iterate+0xce6>
800020b8:	0046a303          	lw	x6,4(x13)
800020bc:	0585                	addi	x11,x11,1
800020be:	05c2                	slli	x11,x11,0x10
800020c0:	00031783          	lh	x15,0(x6)
800020c4:	81c1                	srli	x11,x11,0x10
800020c6:	0017f313          	andi	x6,x15,1
800020ca:	00030963          	beqz	x6,800020dc <iterate+0x75c>
800020ce:	87a5                	srai	x15,x15,0x9
800020d0:	8b85                	andi	x15,x15,1
800020d2:	97c2                	add	x15,x15,x16
800020d4:	01079813          	slli	x16,x15,0x10
800020d8:	01085813          	srli	x16,x16,0x10
800020dc:	0006a303          	lw	x6,0(x13)
800020e0:	00030b63          	beqz	x6,800020f6 <iterate+0x776>
800020e4:	00032783          	lw	x15,0(x6)
800020e8:	871a                	mv	x14,x6
800020ea:	c29c                	sw	x15,0(x13)
800020ec:	411c                	lw	x15,0(x10)
800020ee:	00f32023          	sw	x15,0(x6)
800020f2:	00652023          	sw	x6,0(x10)
800020f6:	0605                	addi	x12,x12,1
800020f8:	0642                	slli	x12,x12,0x10
800020fa:	8641                	srai	x12,x12,0x10
800020fc:	f9c613e3          	bne	x12,x28,80002082 <iterate+0x702>
80002100:	00259793          	slli	x15,x11,0x2
80002104:	411787b3          	sub	x15,x15,x17
80002108:	97c2                	add	x15,x15,x16
8000210a:	01079413          	slli	x8,x15,0x10
8000210e:	8041                	srli	x8,x8,0x10
80002110:	01841a93          	slli	x21,x8,0x18
80002114:	cc76                	sw	x29,24(x2)
80002116:	418ada93          	srai	x21,x21,0x18
8000211a:	00072803          	lw	x16,0(x14)
8000211e:	00472c03          	lw	x24,4(x14)
80002122:	87aa                	mv	x15,x10
80002124:	00482603          	lw	x12,4(x16)
80002128:	00082683          	lw	x13,0(x16)
8000212c:	c350                	sw	x12,4(x14)
8000212e:	01882223          	sw	x24,4(x16)
80002132:	c314                	sw	x13,0(x14)
80002134:	46e2                	lw	x13,24(x2)
80002136:	00082023          	sw	x0,0(x16)
8000213a:	43d8                	lw	x14,4(x15)
8000213c:	00074703          	lbu	x14,0(x14)
80002140:	56d70563          	beq	x14,x13,800026aa <iterate+0xd2a>
80002144:	439c                	lw	x15,0(x15)
80002146:	fbf5                	bnez	x15,8000213a <iterate+0x7ba>
80002148:	411c                	lw	x15,0(x10)
8000214a:	8bbe                	mv	x23,x15
8000214c:	1a078e63          	beqz	x15,80002308 <iterate+0x988>
80002150:	4158                	lw	x14,4(x10)
80002152:	00071583          	lh	x11,0(x14)
80002156:	01059613          	slli	x12,x11,0x10
8000215a:	8241                	srli	x12,x12,0x10
8000215c:	8221                	srli	x12,x12,0x8
8000215e:	0ff5f693          	andi	x13,x11,255
80002162:	0ff67713          	andi	x14,x12,255
80002166:	05e2                	slli	x11,x11,0x18
80002168:	0662                	slli	x12,x12,0x18
8000216a:	0016dc93          	srli	x25,x13,0x1
8000216e:	0026db13          	srli	x22,x13,0x2
80002172:	0036da93          	srli	x21,x13,0x3
80002176:	0046d093          	srli	x1,x13,0x4
8000217a:	0056d393          	srli	x7,x13,0x5
8000217e:	0066d293          	srli	x5,x13,0x6
80002182:	00175f93          	srli	x31,x14,0x1
80002186:	00275f13          	srli	x30,x14,0x2
8000218a:	00375e93          	srli	x29,x14,0x3
8000218e:	00475e13          	srli	x28,x14,0x4
80002192:	00575313          	srli	x6,x14,0x5
80002196:	00675893          	srli	x17,x14,0x6
8000219a:	85e1                	srai	x11,x11,0x18
8000219c:	829d                	srli	x13,x13,0x7
8000219e:	8661                	srai	x12,x12,0x18
800021a0:	831d                	srli	x14,x14,0x7
800021a2:	0085c9b3          	xor	x19,x11,x8
800021a6:	0019f993          	andi	x19,x19,1
800021aa:	8005                	srli	x8,x8,0x1
800021ac:	00098663          	beqz	x19,800021b8 <iterate+0x838>
800021b0:	01244433          	xor	x8,x8,x18
800021b4:	0442                	slli	x8,x8,0x10
800021b6:	8041                	srli	x8,x8,0x10
800021b8:	008cc9b3          	xor	x19,x25,x8
800021bc:	0019f993          	andi	x19,x19,1
800021c0:	8005                	srli	x8,x8,0x1
800021c2:	00098663          	beqz	x19,800021ce <iterate+0x84e>
800021c6:	01244433          	xor	x8,x8,x18
800021ca:	0442                	slli	x8,x8,0x10
800021cc:	8041                	srli	x8,x8,0x10
800021ce:	008b49b3          	xor	x19,x22,x8
800021d2:	0019f993          	andi	x19,x19,1
800021d6:	8005                	srli	x8,x8,0x1
800021d8:	00098663          	beqz	x19,800021e4 <iterate+0x864>
800021dc:	01244433          	xor	x8,x8,x18
800021e0:	0442                	slli	x8,x8,0x10
800021e2:	8041                	srli	x8,x8,0x10
800021e4:	008ac9b3          	xor	x19,x21,x8
800021e8:	0019f993          	andi	x19,x19,1
800021ec:	8005                	srli	x8,x8,0x1
800021ee:	00098663          	beqz	x19,800021fa <iterate+0x87a>
800021f2:	01244433          	xor	x8,x8,x18
800021f6:	0442                	slli	x8,x8,0x10
800021f8:	8041                	srli	x8,x8,0x10
800021fa:	0080c9b3          	xor	x19,x1,x8
800021fe:	0019f993          	andi	x19,x19,1
80002202:	8005                	srli	x8,x8,0x1
80002204:	00098663          	beqz	x19,80002210 <iterate+0x890>
80002208:	01244433          	xor	x8,x8,x18
8000220c:	0442                	slli	x8,x8,0x10
8000220e:	8041                	srli	x8,x8,0x10
80002210:	0083c9b3          	xor	x19,x7,x8
80002214:	0019f993          	andi	x19,x19,1
80002218:	8005                	srli	x8,x8,0x1
8000221a:	00098663          	beqz	x19,80002226 <iterate+0x8a6>
8000221e:	01244433          	xor	x8,x8,x18
80002222:	0442                	slli	x8,x8,0x10
80002224:	8041                	srli	x8,x8,0x10
80002226:	0082c9b3          	xor	x19,x5,x8
8000222a:	0019f993          	andi	x19,x19,1
8000222e:	8005                	srli	x8,x8,0x1
80002230:	00098663          	beqz	x19,8000223c <iterate+0x8bc>
80002234:	01244433          	xor	x8,x8,x18
80002238:	0442                	slli	x8,x8,0x10
8000223a:	8041                	srli	x8,x8,0x10
8000223c:	00147993          	andi	x19,x8,1
80002240:	8005                	srli	x8,x8,0x1
80002242:	00d98663          	beq	x19,x13,8000224e <iterate+0x8ce>
80002246:	01244433          	xor	x8,x8,x18
8000224a:	0442                	slli	x8,x8,0x10
8000224c:	8041                	srli	x8,x8,0x10
8000224e:	008649b3          	xor	x19,x12,x8
80002252:	0019f993          	andi	x19,x19,1
80002256:	8005                	srli	x8,x8,0x1
80002258:	00098663          	beqz	x19,80002264 <iterate+0x8e4>
8000225c:	01244433          	xor	x8,x8,x18
80002260:	0442                	slli	x8,x8,0x10
80002262:	8041                	srli	x8,x8,0x10
80002264:	008fc9b3          	xor	x19,x31,x8
80002268:	0019f993          	andi	x19,x19,1
8000226c:	8005                	srli	x8,x8,0x1
8000226e:	00098663          	beqz	x19,8000227a <iterate+0x8fa>
80002272:	01244433          	xor	x8,x8,x18
80002276:	0442                	slli	x8,x8,0x10
80002278:	8041                	srli	x8,x8,0x10
8000227a:	008f49b3          	xor	x19,x30,x8
8000227e:	0019f993          	andi	x19,x19,1
80002282:	8005                	srli	x8,x8,0x1
80002284:	00098663          	beqz	x19,80002290 <iterate+0x910>
80002288:	01244433          	xor	x8,x8,x18
8000228c:	0442                	slli	x8,x8,0x10
8000228e:	8041                	srli	x8,x8,0x10
80002290:	008ec9b3          	xor	x19,x29,x8
80002294:	0019f993          	andi	x19,x19,1
80002298:	8005                	srli	x8,x8,0x1
8000229a:	00098663          	beqz	x19,800022a6 <iterate+0x926>
8000229e:	01244433          	xor	x8,x8,x18
800022a2:	0442                	slli	x8,x8,0x10
800022a4:	8041                	srli	x8,x8,0x10
800022a6:	008e49b3          	xor	x19,x28,x8
800022aa:	0019f993          	andi	x19,x19,1
800022ae:	8005                	srli	x8,x8,0x1
800022b0:	00098663          	beqz	x19,800022bc <iterate+0x93c>
800022b4:	01244433          	xor	x8,x8,x18
800022b8:	0442                	slli	x8,x8,0x10
800022ba:	8041                	srli	x8,x8,0x10
800022bc:	008349b3          	xor	x19,x6,x8
800022c0:	0019f993          	andi	x19,x19,1
800022c4:	8005                	srli	x8,x8,0x1
800022c6:	00098663          	beqz	x19,800022d2 <iterate+0x952>
800022ca:	01244433          	xor	x8,x8,x18
800022ce:	0442                	slli	x8,x8,0x10
800022d0:	8041                	srli	x8,x8,0x10
800022d2:	0088c9b3          	xor	x19,x17,x8
800022d6:	0019f993          	andi	x19,x19,1
800022da:	8005                	srli	x8,x8,0x1
800022dc:	00098663          	beqz	x19,800022e8 <iterate+0x968>
800022e0:	01244433          	xor	x8,x8,x18
800022e4:	0442                	slli	x8,x8,0x10
800022e6:	8041                	srli	x8,x8,0x10
800022e8:	00147993          	andi	x19,x8,1
800022ec:	8005                	srli	x8,x8,0x1
800022ee:	00e98663          	beq	x19,x14,800022fa <iterate+0x97a>
800022f2:	01244433          	xor	x8,x8,x18
800022f6:	0442                	slli	x8,x8,0x10
800022f8:	8041                	srli	x8,x8,0x10
800022fa:	439c                	lw	x15,0(x15)
800022fc:	ea0793e3          	bnez	x15,800021a2 <iterate+0x822>
80002300:	01841a93          	slli	x21,x8,0x18
80002304:	418ada93          	srai	x21,x21,0x18
80002308:	004ba703          	lw	x14,4(x23)
8000230c:	000ba783          	lw	x15,0(x23)
80002310:	00e82223          	sw	x14,4(x16)
80002314:	018ba223          	sw	x24,4(x23)
80002318:	00f82023          	sw	x15,0(x16)
8000231c:	010ba023          	sw	x16,0(x23)
80002320:	ffffe097          	auipc	x1,0xffffe
80002324:	dca080e7          	jalr	-566(x1) # 800000ea <core_list_mergesort.constprop.4>
80002328:	411c                	lw	x15,0(x10)
8000232a:	1a078e63          	beqz	x15,800024e6 <iterate+0xb66>
8000232e:	4158                	lw	x14,4(x10)
80002330:	00071583          	lh	x11,0(x14)
80002334:	01059613          	slli	x12,x11,0x10
80002338:	8241                	srli	x12,x12,0x10
8000233a:	8221                	srli	x12,x12,0x8
8000233c:	0ff5f693          	andi	x13,x11,255
80002340:	0ff67713          	andi	x14,x12,255
80002344:	05e2                	slli	x11,x11,0x18
80002346:	0662                	slli	x12,x12,0x18
80002348:	0016db13          	srli	x22,x13,0x1
8000234c:	0026da93          	srli	x21,x13,0x2
80002350:	0036d393          	srli	x7,x13,0x3
80002354:	0046d293          	srli	x5,x13,0x4
80002358:	0056df93          	srli	x31,x13,0x5
8000235c:	0066df13          	srli	x30,x13,0x6
80002360:	00175e93          	srli	x29,x14,0x1
80002364:	00275e13          	srli	x28,x14,0x2
80002368:	00375313          	srli	x6,x14,0x3
8000236c:	00475893          	srli	x17,x14,0x4
80002370:	00575813          	srli	x16,x14,0x5
80002374:	00675513          	srli	x10,x14,0x6
80002378:	85e1                	srai	x11,x11,0x18
8000237a:	829d                	srli	x13,x13,0x7
8000237c:	8661                	srai	x12,x12,0x18
8000237e:	831d                	srli	x14,x14,0x7
80002380:	0085c9b3          	xor	x19,x11,x8
80002384:	0019f993          	andi	x19,x19,1
80002388:	8005                	srli	x8,x8,0x1
8000238a:	00098663          	beqz	x19,80002396 <iterate+0xa16>
8000238e:	01244433          	xor	x8,x8,x18
80002392:	0442                	slli	x8,x8,0x10
80002394:	8041                	srli	x8,x8,0x10
80002396:	008b49b3          	xor	x19,x22,x8
8000239a:	0019f993          	andi	x19,x19,1
8000239e:	8005                	srli	x8,x8,0x1
800023a0:	00098663          	beqz	x19,800023ac <iterate+0xa2c>
800023a4:	01244433          	xor	x8,x8,x18
800023a8:	0442                	slli	x8,x8,0x10
800023aa:	8041                	srli	x8,x8,0x10
800023ac:	008ac9b3          	xor	x19,x21,x8
800023b0:	0019f993          	andi	x19,x19,1
800023b4:	8005                	srli	x8,x8,0x1
800023b6:	00098663          	beqz	x19,800023c2 <iterate+0xa42>
800023ba:	01244433          	xor	x8,x8,x18
800023be:	0442                	slli	x8,x8,0x10
800023c0:	8041                	srli	x8,x8,0x10
800023c2:	0083c9b3          	xor	x19,x7,x8
800023c6:	0019f993          	andi	x19,x19,1
800023ca:	8005                	srli	x8,x8,0x1
800023cc:	00098663          	beqz	x19,800023d8 <iterate+0xa58>
800023d0:	01244433          	xor	x8,x8,x18
800023d4:	0442                	slli	x8,x8,0x10
800023d6:	8041                	srli	x8,x8,0x10
800023d8:	0082c9b3          	xor	x19,x5,x8
800023dc:	0019f993          	andi	x19,x19,1
800023e0:	8005                	srli	x8,x8,0x1
800023e2:	00098663          	beqz	x19,800023ee <iterate+0xa6e>
800023e6:	01244433          	xor	x8,x8,x18
800023ea:	0442                	slli	x8,x8,0x10
800023ec:	8041                	srli	x8,x8,0x10
800023ee:	008fc9b3          	xor	x19,x31,x8
800023f2:	0019f993          	andi	x19,x19,1
800023f6:	8005                	srli	x8,x8,0x1
800023f8:	00098663          	beqz	x19,80002404 <iterate+0xa84>
800023fc:	01244433          	xor	x8,x8,x18
80002400:	0442                	slli	x8,x8,0x10
80002402:	8041                	srli	x8,x8,0x10
80002404:	008f49b3          	xor	x19,x30,x8
80002408:	0019f993          	andi	x19,x19,1
8000240c:	8005                	srli	x8,x8,0x1
8000240e:	00098663          	beqz	x19,8000241a <iterate+0xa9a>
80002412:	01244433          	xor	x8,x8,x18
80002416:	0442                	slli	x8,x8,0x10
80002418:	8041                	srli	x8,x8,0x10
8000241a:	00147993          	andi	x19,x8,1
8000241e:	8005                	srli	x8,x8,0x1
80002420:	00d98663          	beq	x19,x13,8000242c <iterate+0xaac>
80002424:	01244433          	xor	x8,x8,x18
80002428:	0442                	slli	x8,x8,0x10
8000242a:	8041                	srli	x8,x8,0x10
8000242c:	008649b3          	xor	x19,x12,x8
80002430:	0019f993          	andi	x19,x19,1
80002434:	8005                	srli	x8,x8,0x1
80002436:	00098663          	beqz	x19,80002442 <iterate+0xac2>
8000243a:	01244433          	xor	x8,x8,x18
8000243e:	0442                	slli	x8,x8,0x10
80002440:	8041                	srli	x8,x8,0x10
80002442:	008ec9b3          	xor	x19,x29,x8
80002446:	0019f993          	andi	x19,x19,1
8000244a:	8005                	srli	x8,x8,0x1
8000244c:	00098663          	beqz	x19,80002458 <iterate+0xad8>
80002450:	01244433          	xor	x8,x8,x18
80002454:	0442                	slli	x8,x8,0x10
80002456:	8041                	srli	x8,x8,0x10
80002458:	008e49b3          	xor	x19,x28,x8
8000245c:	0019f993          	andi	x19,x19,1
80002460:	8005                	srli	x8,x8,0x1
80002462:	00098663          	beqz	x19,8000246e <iterate+0xaee>
80002466:	01244433          	xor	x8,x8,x18
8000246a:	0442                	slli	x8,x8,0x10
8000246c:	8041                	srli	x8,x8,0x10
8000246e:	008349b3          	xor	x19,x6,x8
80002472:	0019f993          	andi	x19,x19,1
80002476:	8005                	srli	x8,x8,0x1
80002478:	00098663          	beqz	x19,80002484 <iterate+0xb04>
8000247c:	01244433          	xor	x8,x8,x18
80002480:	0442                	slli	x8,x8,0x10
80002482:	8041                	srli	x8,x8,0x10
80002484:	0088c9b3          	xor	x19,x17,x8
80002488:	0019f993          	andi	x19,x19,1
8000248c:	8005                	srli	x8,x8,0x1
8000248e:	00098663          	beqz	x19,8000249a <iterate+0xb1a>
80002492:	01244433          	xor	x8,x8,x18
80002496:	0442                	slli	x8,x8,0x10
80002498:	8041                	srli	x8,x8,0x10
8000249a:	008849b3          	xor	x19,x16,x8
8000249e:	0019f993          	andi	x19,x19,1
800024a2:	8005                	srli	x8,x8,0x1
800024a4:	00098663          	beqz	x19,800024b0 <iterate+0xb30>
800024a8:	01244433          	xor	x8,x8,x18
800024ac:	0442                	slli	x8,x8,0x10
800024ae:	8041                	srli	x8,x8,0x10
800024b0:	008549b3          	xor	x19,x10,x8
800024b4:	0019f993          	andi	x19,x19,1
800024b8:	8005                	srli	x8,x8,0x1
800024ba:	00098663          	beqz	x19,800024c6 <iterate+0xb46>
800024be:	01244433          	xor	x8,x8,x18
800024c2:	0442                	slli	x8,x8,0x10
800024c4:	8041                	srli	x8,x8,0x10
800024c6:	00147993          	andi	x19,x8,1
800024ca:	8005                	srli	x8,x8,0x1
800024cc:	00e98663          	beq	x19,x14,800024d8 <iterate+0xb58>
800024d0:	01244433          	xor	x8,x8,x18
800024d4:	0442                	slli	x8,x8,0x10
800024d6:	8041                	srli	x8,x8,0x10
800024d8:	439c                	lw	x15,0(x15)
800024da:	ea0793e3          	bnez	x15,80002380 <iterate+0xa00>
800024de:	01841a93          	slli	x21,x8,0x18
800024e2:	418ada93          	srai	x21,x21,0x18
800024e6:	0384d783          	lhu	x15,56(x9)
800024ea:	0ff47713          	andi	x14,x8,255
800024ee:	00175613          	srli	x12,x14,0x1
800024f2:	00fac6b3          	xor	x13,x21,x15
800024f6:	8a85                	andi	x13,x13,1
800024f8:	8385                	srli	x15,x15,0x1
800024fa:	c689                	beqz	x13,80002504 <iterate+0xb84>
800024fc:	0127c7b3          	xor	x15,x15,x18
80002500:	07c2                	slli	x15,x15,0x10
80002502:	83c1                	srli	x15,x15,0x10
80002504:	8e3d                	xor	x12,x12,x15
80002506:	8a05                	andi	x12,x12,1
80002508:	00275693          	srli	x13,x14,0x2
8000250c:	8385                	srli	x15,x15,0x1
8000250e:	c609                	beqz	x12,80002518 <iterate+0xb98>
80002510:	0127c7b3          	xor	x15,x15,x18
80002514:	07c2                	slli	x15,x15,0x10
80002516:	83c1                	srli	x15,x15,0x10
80002518:	8ebd                	xor	x13,x13,x15
8000251a:	8a85                	andi	x13,x13,1
8000251c:	00375613          	srli	x12,x14,0x3
80002520:	8385                	srli	x15,x15,0x1
80002522:	c689                	beqz	x13,8000252c <iterate+0xbac>
80002524:	0127c7b3          	xor	x15,x15,x18
80002528:	07c2                	slli	x15,x15,0x10
8000252a:	83c1                	srli	x15,x15,0x10
8000252c:	8e3d                	xor	x12,x12,x15
8000252e:	8a05                	andi	x12,x12,1
80002530:	00475693          	srli	x13,x14,0x4
80002534:	8385                	srli	x15,x15,0x1
80002536:	c609                	beqz	x12,80002540 <iterate+0xbc0>
80002538:	0127c7b3          	xor	x15,x15,x18
8000253c:	07c2                	slli	x15,x15,0x10
8000253e:	83c1                	srli	x15,x15,0x10
80002540:	8ebd                	xor	x13,x13,x15
80002542:	8a85                	andi	x13,x13,1
80002544:	00575613          	srli	x12,x14,0x5
80002548:	8385                	srli	x15,x15,0x1
8000254a:	c689                	beqz	x13,80002554 <iterate+0xbd4>
8000254c:	0127c7b3          	xor	x15,x15,x18
80002550:	07c2                	slli	x15,x15,0x10
80002552:	83c1                	srli	x15,x15,0x10
80002554:	8e3d                	xor	x12,x12,x15
80002556:	8a05                	andi	x12,x12,1
80002558:	00675693          	srli	x13,x14,0x6
8000255c:	8385                	srli	x15,x15,0x1
8000255e:	c609                	beqz	x12,80002568 <iterate+0xbe8>
80002560:	0127c7b3          	xor	x15,x15,x18
80002564:	07c2                	slli	x15,x15,0x10
80002566:	83c1                	srli	x15,x15,0x10
80002568:	8ebd                	xor	x13,x13,x15
8000256a:	8a85                	andi	x13,x13,1
8000256c:	831d                	srli	x14,x14,0x7
8000256e:	8385                	srli	x15,x15,0x1
80002570:	c689                	beqz	x13,8000257a <iterate+0xbfa>
80002572:	0127c7b3          	xor	x15,x15,x18
80002576:	07c2                	slli	x15,x15,0x10
80002578:	83c1                	srli	x15,x15,0x10
8000257a:	0017f693          	andi	x13,x15,1
8000257e:	8385                	srli	x15,x15,0x1
80002580:	00e68663          	beq	x13,x14,8000258c <iterate+0xc0c>
80002584:	0127c7b3          	xor	x15,x15,x18
80002588:	07c2                	slli	x15,x15,0x10
8000258a:	83c1                	srli	x15,x15,0x10
8000258c:	00845713          	srli	x14,x8,0x8
80002590:	00e7c6b3          	xor	x13,x15,x14
80002594:	8a85                	andi	x13,x13,1
80002596:	0ff77713          	andi	x14,x14,255
8000259a:	00175613          	srli	x12,x14,0x1
8000259e:	8385                	srli	x15,x15,0x1
800025a0:	c689                	beqz	x13,800025aa <iterate+0xc2a>
800025a2:	0127c7b3          	xor	x15,x15,x18
800025a6:	07c2                	slli	x15,x15,0x10
800025a8:	83c1                	srli	x15,x15,0x10
800025aa:	8e3d                	xor	x12,x12,x15
800025ac:	8a05                	andi	x12,x12,1
800025ae:	00275693          	srli	x13,x14,0x2
800025b2:	8385                	srli	x15,x15,0x1
800025b4:	c609                	beqz	x12,800025be <iterate+0xc3e>
800025b6:	0127c7b3          	xor	x15,x15,x18
800025ba:	07c2                	slli	x15,x15,0x10
800025bc:	83c1                	srli	x15,x15,0x10
800025be:	8ebd                	xor	x13,x13,x15
800025c0:	8a85                	andi	x13,x13,1
800025c2:	00375613          	srli	x12,x14,0x3
800025c6:	8385                	srli	x15,x15,0x1
800025c8:	c689                	beqz	x13,800025d2 <iterate+0xc52>
800025ca:	0127c7b3          	xor	x15,x15,x18
800025ce:	07c2                	slli	x15,x15,0x10
800025d0:	83c1                	srli	x15,x15,0x10
800025d2:	8e3d                	xor	x12,x12,x15
800025d4:	8a05                	andi	x12,x12,1
800025d6:	00475693          	srli	x13,x14,0x4
800025da:	8385                	srli	x15,x15,0x1
800025dc:	c609                	beqz	x12,800025e6 <iterate+0xc66>
800025de:	0127c7b3          	xor	x15,x15,x18
800025e2:	07c2                	slli	x15,x15,0x10
800025e4:	83c1                	srli	x15,x15,0x10
800025e6:	8ebd                	xor	x13,x13,x15
800025e8:	8a85                	andi	x13,x13,1
800025ea:	00575613          	srli	x12,x14,0x5
800025ee:	8385                	srli	x15,x15,0x1
800025f0:	c689                	beqz	x13,800025fa <iterate+0xc7a>
800025f2:	0127c7b3          	xor	x15,x15,x18
800025f6:	07c2                	slli	x15,x15,0x10
800025f8:	83c1                	srli	x15,x15,0x10
800025fa:	8e3d                	xor	x12,x12,x15
800025fc:	8a05                	andi	x12,x12,1
800025fe:	00675693          	srli	x13,x14,0x6
80002602:	8385                	srli	x15,x15,0x1
80002604:	c609                	beqz	x12,8000260e <iterate+0xc8e>
80002606:	0127c7b3          	xor	x15,x15,x18
8000260a:	07c2                	slli	x15,x15,0x10
8000260c:	83c1                	srli	x15,x15,0x10
8000260e:	8ebd                	xor	x13,x13,x15
80002610:	8a85                	andi	x13,x13,1
80002612:	831d                	srli	x14,x14,0x7
80002614:	8385                	srli	x15,x15,0x1
80002616:	c689                	beqz	x13,80002620 <iterate+0xca0>
80002618:	0127c7b3          	xor	x15,x15,x18
8000261c:	07c2                	slli	x15,x15,0x10
8000261e:	83c1                	srli	x15,x15,0x10
80002620:	0017f693          	andi	x13,x15,1
80002624:	8385                	srli	x15,x15,0x1
80002626:	00e68663          	beq	x13,x14,80002632 <iterate+0xcb2>
8000262a:	0127c7b3          	xor	x15,x15,x18
8000262e:	07c2                	slli	x15,x15,0x10
80002630:	83c1                	srli	x15,x15,0x10
80002632:	4732                	lw	x14,12(x2)
80002634:	02f49c23          	sh	x15,56(x9)
80002638:	c341                	beqz	x14,800026b8 <iterate+0xd38>
8000263a:	00170793          	addi	x15,x14,1
8000263e:	4752                	lw	x14,20(x2)
80002640:	c63e                	sw	x15,12(x2)
80002642:	b6f71963          	bne	x14,x15,800019b4 <iterate+0x34>
80002646:	40f6                	lw	x1,92(x2)
80002648:	4466                	lw	x8,88(x2)
8000264a:	44d6                	lw	x9,84(x2)
8000264c:	4946                	lw	x18,80(x2)
8000264e:	49b6                	lw	x19,76(x2)
80002650:	4a26                	lw	x20,72(x2)
80002652:	4a96                	lw	x21,68(x2)
80002654:	4b06                	lw	x22,64(x2)
80002656:	5bf2                	lw	x23,60(x2)
80002658:	5c62                	lw	x24,56(x2)
8000265a:	5cd2                	lw	x25,52(x2)
8000265c:	5d42                	lw	x26,48(x2)
8000265e:	5db2                	lw	x27,44(x2)
80002660:	4501                	li	x10,0
80002662:	6125                	addi	x2,x2,96
80002664:	8082                	ret
80002666:	435c                	lw	x15,4(x14)
80002668:	0885                	addi	x17,x17,1
8000266a:	08c2                	slli	x17,x17,0x10
8000266c:	00178783          	lb	x15,1(x15)
80002670:	0108d893          	srli	x17,x17,0x10
80002674:	8b85                	andi	x15,x15,1
80002676:	97c2                	add	x15,x15,x16
80002678:	01079813          	slli	x16,x15,0x10
8000267c:	01085813          	srli	x16,x16,0x10
80002680:	bc9d                	j	800020f6 <iterate+0x776>
80002682:	000aa803          	lw	x16,0(x21)
80002686:	d08ff06f          	j	80001b8e <iterate+0x20e>
8000268a:	46f2                	lw	x13,28(x2)
8000268c:	43d8                	lw	x14,4(x15)
8000268e:	00074703          	lbu	x14,0(x14)
80002692:	fed708e3          	beq	x14,x13,80002682 <iterate+0xd02>
80002696:	439c                	lw	x15,0(x15)
80002698:	fbf5                	bnez	x15,8000268c <iterate+0xd0c>
8000269a:	ceaff06f          	j	80001b84 <iterate+0x204>
8000269e:	4785                	li	x15,1
800026a0:	c402                	sw	x0,8(x2)
800026a2:	c83e                	sw	x15,16(x2)
800026a4:	4c05                	li	x24,1
800026a6:	bc4ff06f          	j	80001a6a <iterate+0xea>
800026aa:	00052b83          	lw	x23,0(x10)
800026ae:	b44d                	j	80002150 <iterate+0x7d0>
800026b0:	4118                	lw	x14,0(x10)
800026b2:	4a81                	li	x21,0
800026b4:	4401                	li	x8,0
800026b6:	b495                	j	8000211a <iterate+0x79a>
800026b8:	02f49d23          	sh	x15,58(x9)
800026bc:	47d2                	lw	x15,20(x2)
800026be:	4705                	li	x14,1
800026c0:	f8e783e3          	beq	x15,x14,80002646 <iterate+0xcc6>
800026c4:	4785                	li	x15,1
800026c6:	c63e                	sw	x15,12(x2)
800026c8:	aecff06f          	j	800019b4 <iterate+0x34>

800026cc <__mulsi3>:
800026cc:	00050613          	mv	x12,x10
800026d0:	00000513          	li	x10,0
800026d4:	0015f693          	andi	x13,x11,1
800026d8:	00068463          	beqz	x13,800026e0 <__mulsi3+0x14>
800026dc:	00c50533          	add	x10,x10,x12
800026e0:	0015d593          	srli	x11,x11,0x1
800026e4:	00161613          	slli	x12,x12,0x1
800026e8:	fe0596e3          	bnez	x11,800026d4 <__mulsi3+0x8>
800026ec:	00008067          	ret

800026f0 <__divsi3>:
800026f0:	06054063          	bltz	x10,80002750 <__umodsi3+0x10>
800026f4:	0605c663          	bltz	x11,80002760 <__umodsi3+0x20>

800026f8 <__udivsi3>:
800026f8:	00058613          	mv	x12,x11
800026fc:	00050593          	mv	x11,x10
80002700:	fff00513          	li	x10,-1
80002704:	02060c63          	beqz	x12,8000273c <__udivsi3+0x44>
80002708:	00100693          	li	x13,1
8000270c:	00b67a63          	bleu	x11,x12,80002720 <__udivsi3+0x28>
80002710:	00c05863          	blez	x12,80002720 <__udivsi3+0x28>
80002714:	00161613          	slli	x12,x12,0x1
80002718:	00169693          	slli	x13,x13,0x1
8000271c:	feb66ae3          	bltu	x12,x11,80002710 <__udivsi3+0x18>
80002720:	00000513          	li	x10,0
80002724:	00c5e663          	bltu	x11,x12,80002730 <__udivsi3+0x38>
80002728:	40c585b3          	sub	x11,x11,x12
8000272c:	00d56533          	or	x10,x10,x13
80002730:	0016d693          	srli	x13,x13,0x1
80002734:	00165613          	srli	x12,x12,0x1
80002738:	fe0696e3          	bnez	x13,80002724 <__udivsi3+0x2c>
8000273c:	00008067          	ret

80002740 <__umodsi3>:
80002740:	00008293          	mv	x5,x1
80002744:	fb5ff0ef          	jal	x1,800026f8 <__udivsi3>
80002748:	00058513          	mv	x10,x11
8000274c:	00028067          	jr	x5
80002750:	40a00533          	neg	x10,x10
80002754:	0005d863          	bgez	x11,80002764 <__umodsi3+0x24>
80002758:	40b005b3          	neg	x11,x11
8000275c:	f9dff06f          	j	800026f8 <__udivsi3>
80002760:	40b005b3          	neg	x11,x11
80002764:	00008293          	mv	x5,x1
80002768:	f91ff0ef          	jal	x1,800026f8 <__udivsi3>
8000276c:	40a00533          	neg	x10,x10
80002770:	00028067          	jr	x5

80002774 <__modsi3>:
80002774:	00008293          	mv	x5,x1
80002778:	0005ca63          	bltz	x11,8000278c <__modsi3+0x18>
8000277c:	00054c63          	bltz	x10,80002794 <__modsi3+0x20>
80002780:	f79ff0ef          	jal	x1,800026f8 <__udivsi3>
80002784:	00058513          	mv	x10,x11
80002788:	00028067          	jr	x5
8000278c:	40b005b3          	neg	x11,x11
80002790:	fe0558e3          	bgez	x10,80002780 <__modsi3+0xc>
80002794:	40a00533          	neg	x10,x10
80002798:	f61ff0ef          	jal	x1,800026f8 <__udivsi3>
8000279c:	40b00533          	neg	x10,x11
800027a0:	00028067          	jr	x5

800027a4 <main>:
800027a4:	00001797          	auipc	x15,0x1
800027a8:	eb078793          	addi	x15,x15,-336 # 80003654 <seed1_volatile>
800027ac:	438c                	lw	x11,0(x15)
800027ae:	00001797          	auipc	x15,0x1
800027b2:	ea278793          	addi	x15,x15,-350 # 80003650 <seed2_volatile>
800027b6:	4390                	lw	x12,0(x15)
800027b8:	00000797          	auipc	x15,0x0
800027bc:	6c078793          	addi	x15,x15,1728 # 80002e78 <seed3_volatile>
800027c0:	439c                	lw	x15,0(x15)
800027c2:	00000717          	auipc	x14,0x0
800027c6:	6b270713          	addi	x14,x14,1714 # 80002e74 <seed4_volatile>
800027ca:	4314                	lw	x13,0(x14)
800027cc:	00001717          	auipc	x14,0x1
800027d0:	e8070713          	addi	x14,x14,-384 # 8000364c <seed5_volatile>
800027d4:	07c2                	slli	x15,x15,0x10
800027d6:	4318                	lw	x14,0(x14)
800027d8:	7135                	addi	x2,x2,-160
800027da:	87c1                	srai	x15,x15,0x10
800027dc:	4505                	li	x10,1
800027de:	cf06                	sw	x1,156(x2)
800027e0:	cd22                	sw	x8,152(x2)
800027e2:	cb26                	sw	x9,148(x2)
800027e4:	c94a                	sw	x18,144(x2)
800027e6:	c74e                	sw	x19,140(x2)
800027e8:	c552                	sw	x20,136(x2)
800027ea:	c356                	sw	x21,132(x2)
800027ec:	c15a                	sw	x22,128(x2)
800027ee:	dede                	sw	x23,124(x2)
800027f0:	dce2                	sw	x24,120(x2)
800027f2:	dae6                	sw	x25,116(x2)
800027f4:	d8ea                	sw	x26,112(x2)
800027f6:	d6ee                	sw	x27,108(x2)
800027f8:	04a10f23          	sb	x10,94(x2)
800027fc:	00b11e23          	sh	x11,28(x2)
80002800:	00c11f23          	sh	x12,30(x2)
80002804:	02f11023          	sh	x15,32(x2)
80002808:	dc36                	sw	x13,56(x2)
8000280a:	e311                	bnez	x14,8000280e <main+0x6a>
8000280c:	471d                	li	x14,7
8000280e:	de3a                	sw	x14,60(x2)
80002810:	4772                	lw	x14,28(x2)
80002812:	50071063          	bnez	x14,80002d12 <main+0x56e>
80002816:	50078863          	beqz	x15,80002d26 <main+0x582>
8000281a:	5c72                	lw	x24,60(x2)
8000281c:	00000997          	auipc	x19,0x0
80002820:	66098993          	addi	x19,x19,1632 # 80002e7c <_data_vma_end>
80002824:	d24e                	sw	x19,36(x2)
80002826:	001c7493          	andi	x9,x24,1
8000282a:	002c7413          	andi	x8,x24,2
8000282e:	01049593          	slli	x11,x9,0x10
80002832:	81c1                	srli	x11,x11,0x10
80002834:	008037b3          	snez	x15,x8
80002838:	04011e23          	sh	x0,92(x2)
8000283c:	004c7c13          	andi	x24,x24,4
80002840:	95be                	add	x11,x11,x15
80002842:	000c0563          	beqz	x24,8000284c <main+0xa8>
80002846:	0585                	addi	x11,x11,1
80002848:	05c2                	slli	x11,x11,0x10
8000284a:	81c1                	srli	x11,x11,0x10
8000284c:	7d000513          	li	x10,2000
80002850:	00000097          	auipc	x1,0x0
80002854:	ea8080e7          	jalr	-344(x1) # 800026f8 <__udivsi3>
80002858:	da2a                	sw	x10,52(x2)
8000285a:	892a                	mv	x18,x10
8000285c:	4a01                	li	x20,0
8000285e:	50049363          	bnez	x9,80002d64 <main+0x5c0>
80002862:	4e041263          	bnez	x8,80002d46 <main+0x5a2>
80002866:	4c0c1563          	bnez	x24,80002d30 <main+0x58c>
8000286a:	2c049863          	bnez	x9,80002b3a <main+0x396>
8000286e:	1e041f63          	bnez	x8,80002a6c <main+0x2c8>
80002872:	140c0463          	beqz	x24,800029ba <main+0x216>
80002876:	01c15683          	lhu	x13,28(x2)
8000287a:	5352                	lw	x6,52(x2)
8000287c:	4781                	li	x15,0
8000287e:	4601                	li	x12,0
80002880:	0685                	addi	x13,x13,1
80002882:	00c78733          	add	x14,x15,x12
80002886:	06c2                	slli	x13,x13,0x10
80002888:	fff30513          	addi	x10,x6,-1
8000288c:	00170913          	addi	x18,x14,1
80002890:	55c2                	lw	x11,48(x2)
80002892:	82c1                	srli	x13,x13,0x10
80002894:	4981                	li	x19,0
80002896:	4f05                	li	x30,1
80002898:	02c00e93          	li	x29,44
8000289c:	4f89                	li	x31,2
8000289e:	428d                	li	x5,3
800028a0:	4891                	li	x17,4
800028a2:	4395                	li	x7,5
800028a4:	4419                	li	x8,6
800028a6:	44a1                	li	x9,8
800028a8:	00000e17          	auipc	x28,0x0
800028ac:	4dce0e13          	addi	x28,x28,1244 # 80002d84 <intpat>
800028b0:	00000817          	auipc	x16,0x0
800028b4:	4c080813          	addi	x16,x16,1216 # 80002d70 <_text_vma_end>
800028b8:	04a97163          	bleu	x10,x18,800028fa <main+0x156>
800028bc:	38079763          	bnez	x15,80002c4a <main+0x4a6>
800028c0:	0076f793          	andi	x15,x13,7
800028c4:	17f5                	addi	x15,x15,-3
800028c6:	07c2                	slli	x15,x15,0x10
800028c8:	0036d713          	srli	x14,x13,0x3
800028cc:	83c1                	srli	x15,x15,0x10
800028ce:	8b0d                	andi	x14,x14,3
800028d0:	3ef8ea63          	bltu	x17,x15,80002cc4 <main+0x520>
800028d4:	078a                	slli	x15,x15,0x2
800028d6:	97c2                	add	x15,x15,x16
800028d8:	439c                	lw	x15,0(x15)
800028da:	070a                	slli	x14,x14,0x2
800028dc:	9772                	add	x14,x14,x28
800028de:	97c2                	add	x15,x15,x16
800028e0:	8782                	jr	x15
800028e2:	01072983          	lw	x19,16(x14)
800028e6:	47a1                	li	x15,8
800028e8:	0685                	addi	x13,x13,1
800028ea:	00c78733          	add	x14,x15,x12
800028ee:	06c2                	slli	x13,x13,0x10
800028f0:	00170913          	addi	x18,x14,1
800028f4:	82c1                	srli	x13,x13,0x10
800028f6:	fca963e3          	bltu	x18,x10,800028bc <main+0x118>
800028fa:	0c667063          	bleu	x6,x12,800029ba <main+0x216>
800028fe:	00c58733          	add	x14,x11,x12
80002902:	40e007b3          	neg	x15,x14
80002906:	8b8d                	andi	x15,x15,3
80002908:	00378813          	addi	x16,x15,3
8000290c:	4895                	li	x17,5
8000290e:	40c306b3          	sub	x13,x6,x12
80002912:	01187363          	bleu	x17,x16,80002918 <main+0x174>
80002916:	4815                	li	x16,5
80002918:	8d11                	sub	x10,x10,x12
8000291a:	05056c63          	bltu	x10,x16,80002972 <main+0x1ce>
8000291e:	8532                	mv	x10,x12
80002920:	c78d                	beqz	x15,8000294a <main+0x1a6>
80002922:	00070023          	sb	x0,0(x14)
80002926:	4705                	li	x14,1
80002928:	00160513          	addi	x10,x12,1
8000292c:	00e78f63          	beq	x15,x14,8000294a <main+0x1a6>
80002930:	952e                	add	x10,x10,x11
80002932:	00050023          	sb	x0,0(x10)
80002936:	470d                	li	x14,3
80002938:	00260513          	addi	x10,x12,2
8000293c:	00e79763          	bne	x15,x14,8000294a <main+0x1a6>
80002940:	952e                	add	x10,x10,x11
80002942:	00050023          	sb	x0,0(x10)
80002946:	00360513          	addi	x10,x12,3
8000294a:	8e9d                	sub	x13,x13,x15
8000294c:	963e                	add	x12,x12,x15
8000294e:	0026d713          	srli	x14,x13,0x2
80002952:	962e                	add	x12,x12,x11
80002954:	4781                	li	x15,0
80002956:	00062023          	sw	x0,0(x12)
8000295a:	0785                	addi	x15,x15,1
8000295c:	0611                	addi	x12,x12,4
8000295e:	fee7ece3          	bltu	x15,x14,80002956 <main+0x1b2>
80002962:	ffc6f793          	andi	x15,x13,-4
80002966:	00a78633          	add	x12,x15,x10
8000296a:	04d78863          	beq	x15,x13,800029ba <main+0x216>
8000296e:	00c58733          	add	x14,x11,x12
80002972:	00070023          	sb	x0,0(x14)
80002976:	00160793          	addi	x15,x12,1
8000297a:	0467f063          	bleu	x6,x15,800029ba <main+0x216>
8000297e:	97ae                	add	x15,x15,x11
80002980:	00078023          	sb	x0,0(x15)
80002984:	00260793          	addi	x15,x12,2
80002988:	0267f963          	bleu	x6,x15,800029ba <main+0x216>
8000298c:	97ae                	add	x15,x15,x11
8000298e:	00078023          	sb	x0,0(x15)
80002992:	00360793          	addi	x15,x12,3
80002996:	0267f263          	bleu	x6,x15,800029ba <main+0x216>
8000299a:	97ae                	add	x15,x15,x11
8000299c:	00078023          	sb	x0,0(x15)
800029a0:	00460793          	addi	x15,x12,4
800029a4:	0067fb63          	bleu	x6,x15,800029ba <main+0x216>
800029a8:	97ae                	add	x15,x15,x11
800029aa:	00078023          	sb	x0,0(x15)
800029ae:	0615                	addi	x12,x12,5
800029b0:	00667563          	bleu	x6,x12,800029ba <main+0x216>
800029b4:	962e                	add	x12,x12,x11
800029b6:	00060023          	sb	x0,0(x12)
800029ba:	57e2                	lw	x15,56(x2)
800029bc:	e3bd                	bnez	x15,80002a22 <main+0x27e>
800029be:	4785                	li	x15,1
800029c0:	3b9ad4b7          	lui	x9,0x3b9ad
800029c4:	dc3e                	sw	x15,56(x2)
800029c6:	a0048493          	addi	x9,x9,-1536 # 3b9aca00 <_text_start-0x44653600>
800029ca:	5762                	lw	x14,56(x2)
800029cc:	00271793          	slli	x15,x14,0x2
800029d0:	97ba                	add	x15,x15,x14
800029d2:	0786                	slli	x15,x15,0x1
800029d4:	dc3e                	sw	x15,56(x2)
800029d6:	c0002473          	rdcycle	x8
800029da:	0868                	addi	x10,x2,28
800029dc:	00001797          	auipc	x15,0x1
800029e0:	c687ae23          	sw	x8,-900(x15) # 80003658 <start_time_val>
800029e4:	fffff097          	auipc	x1,0xfffff
800029e8:	f9c080e7          	jalr	-100(x1) # 80001980 <iterate>
800029ec:	c0002573          	rdcycle	x10
800029f0:	00001797          	auipc	x15,0x1
800029f4:	c6a7a623          	sw	x10,-916(x15) # 8000365c <stop_time_val>
800029f8:	85a6                	mv	x11,x9
800029fa:	8d01                	sub	x10,x10,x8
800029fc:	00000097          	auipc	x1,0x0
80002a00:	cfc080e7          	jalr	-772(x1) # 800026f8 <__udivsi3>
80002a04:	d179                	beqz	x10,800029ca <main+0x226>
80002a06:	85aa                	mv	x11,x10
80002a08:	4529                	li	x10,10
80002a0a:	00000097          	auipc	x1,0x0
80002a0e:	cee080e7          	jalr	-786(x1) # 800026f8 <__udivsi3>
80002a12:	00150593          	addi	x11,x10,1
80002a16:	5562                	lw	x10,56(x2)
80002a18:	00000097          	auipc	x1,0x0
80002a1c:	cb4080e7          	jalr	-844(x1) # 800026cc <__mulsi3>
80002a20:	dc2a                	sw	x10,56(x2)
80002a22:	c00027f3          	rdcycle	x15
80002a26:	0868                	addi	x10,x2,28
80002a28:	00001717          	auipc	x14,0x1
80002a2c:	c2f72823          	sw	x15,-976(x14) # 80003658 <start_time_val>
80002a30:	fffff097          	auipc	x1,0xfffff
80002a34:	f50080e7          	jalr	-176(x1) # 80001980 <iterate>
80002a38:	c00027f3          	rdcycle	x15
80002a3c:	40fa                	lw	x1,156(x2)
80002a3e:	446a                	lw	x8,152(x2)
80002a40:	00001717          	auipc	x14,0x1
80002a44:	c0f72e23          	sw	x15,-996(x14) # 8000365c <stop_time_val>
80002a48:	44da                	lw	x9,148(x2)
80002a4a:	494a                	lw	x18,144(x2)
80002a4c:	49ba                	lw	x19,140(x2)
80002a4e:	4a2a                	lw	x20,136(x2)
80002a50:	4a9a                	lw	x21,132(x2)
80002a52:	4b0a                	lw	x22,128(x2)
80002a54:	5bf6                	lw	x23,124(x2)
80002a56:	5c66                	lw	x24,120(x2)
80002a58:	5cd6                	lw	x25,116(x2)
80002a5a:	5d46                	lw	x26,112(x2)
80002a5c:	5db6                	lw	x27,108(x2)
80002a5e:	4501                	li	x10,0
80002a60:	610d                	addi	x2,x2,160
80002a62:	8082                	ret
80002a64:	02072983          	lw	x19,32(x14)
80002a68:	47a1                	li	x15,8
80002a6a:	bdbd                	j	800028e8 <main+0x144>
80002a6c:	01e11403          	lh	x8,30(x2)
80002a70:	01c11783          	lh	x15,28(x2)
80002a74:	59d2                	lw	x19,52(x2)
80002a76:	0442                	slli	x8,x8,0x10
80002a78:	8c5d                	or	x8,x8,x15
80002a7a:	5b32                	lw	x22,44(x2)
80002a7c:	e011                	bnez	x8,80002a80 <main+0x2dc>
80002a7e:	4405                	li	x8,1
80002a80:	1b7d                	addi	x22,x22,-1
80002a82:	ffcb7b13          	andi	x22,x22,-4
80002a86:	004b0d13          	addi	x26,x22,4
80002a8a:	4481                	li	x9,0
80002a8c:	00099463          	bnez	x19,80002a94 <main+0x2f0>
80002a90:	aca5                	j	80002d08 <main+0x564>
80002a92:	84ca                	mv	x9,x18
80002a94:	00148913          	addi	x18,x9,1
80002a98:	85ca                	mv	x11,x18
80002a9a:	854a                	mv	x10,x18
80002a9c:	00000097          	auipc	x1,0x0
80002aa0:	c30080e7          	jalr	-976(x1) # 800026cc <__mulsi3>
80002aa4:	050e                	slli	x10,x10,0x3
80002aa6:	ff3566e3          	bltu	x10,x19,80002a92 <main+0x2ee>
80002aaa:	85a6                	mv	x11,x9
80002aac:	8526                	mv	x10,x9
80002aae:	00000097          	auipc	x1,0x0
80002ab2:	c1e080e7          	jalr	-994(x1) # 800026cc <__mulsi3>
80002ab6:	00151793          	slli	x15,x10,0x1
80002aba:	c63e                	sw	x15,12(x2)
80002abc:	00fd0b33          	add	x22,x26,x15
80002ac0:	20048d63          	beqz	x9,80002cda <main+0x536>
80002ac4:	69c1                	lui	x19,0x10
80002ac6:	4905                	li	x18,1
80002ac8:	4a81                	li	x21,0
80002aca:	416d0a33          	sub	x20,x26,x22
80002ace:	00149c93          	slli	x25,x9,0x1
80002ad2:	19fd                	addi	x19,x19,-1
80002ad4:	85d6                	mv	x11,x21
80002ad6:	8566                	mv	x10,x25
80002ad8:	00000097          	auipc	x1,0x0
80002adc:	bf4080e7          	jalr	-1036(x1) # 800026cc <__mulsi3>
80002ae0:	00ab0bb3          	add	x23,x22,x10
80002ae4:	8dca                	mv	x27,x18
80002ae6:	85ee                	mv	x11,x27
80002ae8:	8522                	mv	x10,x8
80002aea:	00000097          	auipc	x1,0x0
80002aee:	be2080e7          	jalr	-1054(x1) # 800026cc <__mulsi3>
80002af2:	41f55413          	srai	x8,x10,0x1f
80002af6:	01045713          	srli	x14,x8,0x10
80002afa:	00e50433          	add	x8,x10,x14
80002afe:	010d9793          	slli	x15,x27,0x10
80002b02:	01347433          	and	x8,x8,x19
80002b06:	83c1                	srli	x15,x15,0x10
80002b08:	8c19                	sub	x8,x8,x14
80002b0a:	00878733          	add	x14,x15,x8
80002b0e:	0742                	slli	x14,x14,0x10
80002b10:	8341                	srli	x14,x14,0x10
80002b12:	97ba                	add	x15,x15,x14
80002b14:	00eb9023          	sh	x14,0(x23)
80002b18:	0ff7f793          	andi	x15,x15,255
80002b1c:	017a0733          	add	x14,x20,x23
80002b20:	0d85                	addi	x27,x27,1
80002b22:	00f71023          	sh	x15,0(x14)
80002b26:	412d87b3          	sub	x15,x27,x18
80002b2a:	0b89                	addi	x23,x23,2
80002b2c:	fa97ede3          	bltu	x15,x9,80002ae6 <main+0x342>
80002b30:	0a85                	addi	x21,x21,1
80002b32:	1a9af363          	bleu	x9,x21,80002cd8 <main+0x534>
80002b36:	896e                	mv	x18,x27
80002b38:	bf71                	j	80002ad4 <main+0x330>
80002b3a:	854a                	mv	x10,x18
80002b3c:	45d1                	li	x11,20
80002b3e:	00000097          	auipc	x1,0x0
80002b42:	bba080e7          	jalr	-1094(x1) # 800026f8 <__udivsi3>
80002b46:	54a2                	lw	x9,40(x2)
80002b48:	1579                	addi	x10,x10,-2
80002b4a:	00351713          	slli	x14,x10,0x3
80002b4e:	9726                	add	x14,x14,x9
80002b50:	77e1                	lui	x15,0xffff8
80002b52:	01c11903          	lh	x18,28(x2)
80002b56:	c0d8                	sw	x14,4(x9)
80002b58:	0004a023          	sw	x0,0(x9)
80002b5c:	08078693          	addi	x13,x15,128 # ffff8080 <_stack_top+0x3fff8080>
80002b60:	00251e13          	slli	x28,x10,0x2
80002b64:	00d71023          	sh	x13,0(x14)
80002b68:	00071123          	sh	x0,2(x14)
80002b6c:	01048613          	addi	x12,x9,16
80002b70:	9e3a                	add	x28,x28,x14
80002b72:	00848693          	addi	x13,x9,8
80002b76:	00470813          	addi	x16,x14,4
80002b7a:	4401                	li	x8,0
80002b7c:	02e67563          	bleu	x14,x12,80002ba6 <main+0x402>
80002b80:	00870593          	addi	x11,x14,8
80002b84:	03c5f163          	bleu	x28,x11,80002ba6 <main+0x402>
80002b88:	c094                	sw	x13,0(x9)
80002b8a:	0104a623          	sw	x16,12(x9)
80002b8e:	0004a423          	sw	x0,8(x9)
80002b92:	fff7c793          	not	x15,x15
80002b96:	8436                	mv	x8,x13
80002b98:	56fd                	li	x13,-1
80002b9a:	00d71223          	sh	x13,4(x14)
80002b9e:	00f71323          	sh	x15,6(x14)
80002ba2:	882e                	mv	x16,x11
80002ba4:	86b2                	mv	x13,x12
80002ba6:	01091f13          	slli	x30,x18,0x10
80002baa:	7ee1                	lui	x29,0xffff8
80002bac:	010f5f13          	srli	x30,x30,0x10
80002bb0:	4781                	li	x15,0
80002bb2:	fffece93          	not	x29,x29
80002bb6:	00868613          	addi	x12,x13,8
80002bba:	04e67263          	bleu	x14,x12,80002bfe <main+0x45a>
80002bbe:	00480893          	addi	x17,x16,4
80002bc2:	03c8fe63          	bleu	x28,x17,80002bfe <main+0x45a>
80002bc6:	01079313          	slli	x6,x15,0x10
80002bca:	01035313          	srli	x6,x6,0x10
80002bce:	01e345b3          	xor	x11,x6,x30
80002bd2:	058e                	slli	x11,x11,0x3
80002bd4:	00737313          	andi	x6,x6,7
80002bd8:	0785f593          	andi	x11,x11,120
80002bdc:	c280                	sw	x8,0(x13)
80002bde:	0065e5b3          	or	x11,x11,x6
80002be2:	c094                	sw	x13,0(x9)
80002be4:	00859313          	slli	x6,x11,0x8
80002be8:	0106a223          	sw	x16,4(x13)
80002bec:	00b365b3          	or	x11,x6,x11
80002bf0:	00b81023          	sh	x11,0(x16)
80002bf4:	01d81123          	sh	x29,2(x16)
80002bf8:	8436                	mv	x8,x13
80002bfa:	8846                	mv	x16,x17
80002bfc:	86b2                	mv	x13,x12
80002bfe:	0785                	addi	x15,x15,1
80002c00:	faf51be3          	bne	x10,x15,80002bb6 <main+0x412>
80002c04:	4595                	li	x11,5
80002c06:	00000097          	auipc	x1,0x0
80002c0a:	af2080e7          	jalr	-1294(x1) # 800026f8 <__udivsi3>
80002c0e:	6811                	lui	x16,0x4
80002c10:	20000793          	li	x15,512
80002c14:	4705                	li	x14,1
80002c16:	187d                	addi	x16,x16,-1
80002c18:	a809                	j	80002c2a <main+0x486>
80002c1a:	00e59123          	sh	x14,2(x11)
80002c1e:	10078793          	addi	x15,x15,256
80002c22:	07c2                	slli	x15,x15,0x10
80002c24:	0705                	addi	x14,x14,1
80002c26:	83c1                	srli	x15,x15,0x10
80002c28:	8432                	mv	x8,x12
80002c2a:	4010                	lw	x12,0(x8)
80002c2c:	c261                	beqz	x12,80002cec <main+0x548>
80002c2e:	404c                	lw	x11,4(x8)
80002c30:	fea765e3          	bltu	x14,x10,80002c1a <main+0x476>
80002c34:	012746b3          	xor	x13,x14,x18
80002c38:	7007f893          	andi	x17,x15,1792
80002c3c:	0116e6b3          	or	x13,x13,x17
80002c40:	0106f6b3          	and	x13,x13,x16
80002c44:	00d59123          	sh	x13,2(x11)
80002c48:	bfd9                	j	80002c1e <main+0x47a>
80002c4a:	0009ca03          	lbu	x20,0(x19) # 10000 <_text_start-0x7fff0000>
80002c4e:	962e                	add	x12,x12,x11
80002c50:	01460023          	sb	x20,0(x12)
80002c54:	05e78a63          	beq	x15,x30,80002ca8 <main+0x504>
80002c58:	0019ca03          	lbu	x20,1(x19)
80002c5c:	014600a3          	sb	x20,1(x12)
80002c60:	05f78463          	beq	x15,x31,80002ca8 <main+0x504>
80002c64:	0029ca03          	lbu	x20,2(x19)
80002c68:	01460123          	sb	x20,2(x12)
80002c6c:	02578e63          	beq	x15,x5,80002ca8 <main+0x504>
80002c70:	0039ca03          	lbu	x20,3(x19)
80002c74:	014601a3          	sb	x20,3(x12)
80002c78:	03178863          	beq	x15,x17,80002ca8 <main+0x504>
80002c7c:	0049ca03          	lbu	x20,4(x19)
80002c80:	01460223          	sb	x20,4(x12)
80002c84:	02778263          	beq	x15,x7,80002ca8 <main+0x504>
80002c88:	0059ca03          	lbu	x20,5(x19)
80002c8c:	014602a3          	sb	x20,5(x12)
80002c90:	00878c63          	beq	x15,x8,80002ca8 <main+0x504>
80002c94:	0069ca03          	lbu	x20,6(x19)
80002c98:	01460323          	sb	x20,6(x12)
80002c9c:	00979663          	bne	x15,x9,80002ca8 <main+0x504>
80002ca0:	0079c783          	lbu	x15,7(x19)
80002ca4:	00f603a3          	sb	x15,7(x12)
80002ca8:	0076f793          	andi	x15,x13,7
80002cac:	17f5                	addi	x15,x15,-3
80002cae:	972e                	add	x14,x14,x11
80002cb0:	07c2                	slli	x15,x15,0x10
80002cb2:	01d70023          	sb	x29,0(x14)
80002cb6:	83c1                	srli	x15,x15,0x10
80002cb8:	0036d713          	srli	x14,x13,0x3
80002cbc:	864a                	mv	x12,x18
80002cbe:	8b0d                	andi	x14,x14,3
80002cc0:	c0f8fae3          	bleu	x15,x17,800028d4 <main+0x130>
80002cc4:	070a                	slli	x14,x14,0x2
80002cc6:	9772                	add	x14,x14,x28
80002cc8:	00072983          	lw	x19,0(x14)
80002ccc:	4791                	li	x15,4
80002cce:	b929                	j	800028e8 <main+0x144>
80002cd0:	03072983          	lw	x19,48(x14)
80002cd4:	47a1                	li	x15,8
80002cd6:	b909                	j	800028e8 <main+0x144>
80002cd8:	47b2                	lw	x15,12(x2)
80002cda:	97da                	add	x15,x15,x22
80002cdc:	17fd                	addi	x15,x15,-1
80002cde:	9bf1                	andi	x15,x15,-4
80002ce0:	0791                	addi	x15,x15,4
80002ce2:	c4ea                	sw	x26,72(x2)
80002ce4:	c6da                	sw	x22,76(x2)
80002ce6:	c8be                	sw	x15,80(x2)
80002ce8:	c2a6                	sw	x9,68(x2)
80002cea:	b661                	j	80002872 <main+0xce>
80002cec:	8526                	mv	x10,x9
80002cee:	ffffd097          	auipc	x1,0xffffd
80002cf2:	3fc080e7          	jalr	1020(x1) # 800000ea <core_list_mergesort.constprop.4>
80002cf6:	5c72                	lw	x24,60(x2)
80002cf8:	c0aa                	sw	x10,64(x2)
80002cfa:	002c7413          	andi	x8,x24,2
80002cfe:	004c7c13          	andi	x24,x24,4
80002d02:	b60408e3          	beqz	x8,80002872 <main+0xce>
80002d06:	b39d                	j	80002a6c <main+0x2c8>
80002d08:	4789                	li	x15,2
80002d0a:	0b19                	addi	x22,x22,6
80002d0c:	c63e                	sw	x15,12(x2)
80002d0e:	54fd                	li	x9,-1
80002d10:	bb55                	j	80002ac4 <main+0x320>
80002d12:	4685                	li	x13,1
80002d14:	b0d713e3          	bne	x14,x13,8000281a <main+0x76>
80002d18:	b00791e3          	bnez	x15,8000281a <main+0x76>
80002d1c:	341537b7          	lui	x15,0x34153
80002d20:	41578793          	addi	x15,x15,1045 # 34153415 <_text_start-0x4beacbeb>
80002d24:	ce3e                	sw	x15,28(x2)
80002d26:	06600793          	li	x15,102
80002d2a:	02f11023          	sh	x15,32(x2)
80002d2e:	b4f5                	j	8000281a <main+0x76>
80002d30:	85ca                	mv	x11,x18
80002d32:	8552                	mv	x10,x20
80002d34:	00000097          	auipc	x1,0x0
80002d38:	998080e7          	jalr	-1640(x1) # 800026cc <__mulsi3>
80002d3c:	954e                	add	x10,x10,x19
80002d3e:	d82a                	sw	x10,48(x2)
80002d40:	b20487e3          	beqz	x9,8000286e <main+0xca>
80002d44:	bbdd                	j	80002b3a <main+0x396>
80002d46:	8552                	mv	x10,x20
80002d48:	85ca                	mv	x11,x18
80002d4a:	00000097          	auipc	x1,0x0
80002d4e:	982080e7          	jalr	-1662(x1) # 800026cc <__mulsi3>
80002d52:	954e                	add	x10,x10,x19
80002d54:	0a05                	addi	x20,x20,1
80002d56:	0a42                	slli	x20,x20,0x10
80002d58:	d62a                	sw	x10,44(x2)
80002d5a:	010a5a13          	srli	x20,x20,0x10
80002d5e:	b00c06e3          	beqz	x24,8000286a <main+0xc6>
80002d62:	b7f9                	j	80002d30 <main+0x58c>
80002d64:	d44e                	sw	x19,40(x2)
80002d66:	4a05                	li	x20,1
80002d68:	ae040fe3          	beqz	x8,80002866 <main+0xc2>
80002d6c:	bfe9                	j	80002d46 <main+0x5a2>
	...

Disassembly of section .data:

80002d70 <_data_vma_start>:
80002d70:	fb72                	fsw	f28,180(x2)
80002d72:	ffff                	0xffff
80002d74:	fb72                	fsw	f28,180(x2)
80002d76:	ffff                	0xffff
80002d78:	fcf4                	fsw	f13,124(x9)
80002d7a:	ffff                	0xffff
80002d7c:	fcf4                	fsw	f13,124(x9)
80002d7e:	ffff                	0xffff
80002d80:	ff60                	fsw	f8,124(x14)
80002d82:	ffff                	0xffff

80002d84 <intpat>:
80002d84:	2e54                	fld	f13,152(x12)
80002d86:	8000                	0x8000
80002d88:	2e5c                	fld	f15,152(x12)
80002d8a:	8000                	0x8000
80002d8c:	2e64                	fld	f9,216(x12)
80002d8e:	8000                	0x8000
80002d90:	2e6c                	fld	f11,216(x12)
80002d92:	8000                	0x8000

80002d94 <floatpat>:
80002d94:	2e24                	fld	f9,88(x12)
80002d96:	8000                	0x8000
80002d98:	2e30                	fld	f12,88(x12)
80002d9a:	8000                	0x8000
80002d9c:	2e3c                	fld	f15,88(x12)
80002d9e:	8000                	0x8000
80002da0:	2e48                	fld	f10,152(x12)
80002da2:	8000                	0x8000

80002da4 <scipat>:
80002da4:	2df4                	fld	f13,216(x11)
80002da6:	8000                	0x8000
80002da8:	2e00                	fld	f8,24(x12)
80002daa:	8000                	0x8000
80002dac:	2e0c                	fld	f11,24(x12)
80002dae:	8000                	0x8000
80002db0:	2e18                	fld	f14,24(x12)
80002db2:	8000                	0x8000

80002db4 <errpat>:
80002db4:	2dc4                	fld	f9,152(x11)
80002db6:	8000                	0x8000
80002db8:	2dd0                	fld	f12,152(x11)
80002dba:	8000                	0x8000
80002dbc:	2ddc                	fld	f15,152(x11)
80002dbe:	8000                	0x8000
80002dc0:	2de8                	fld	f10,216(x11)
80002dc2:	8000                	0x8000
80002dc4:	3054                	fld	f13,160(x8)
80002dc6:	332e                	fld	f6,232(x2)
80002dc8:	2d65                	jal	80003480 <_data_vma_end+0x604>
80002dca:	4631                	li	x12,12
80002dcc:	0000                	unimp
80002dce:	0000                	unimp
80002dd0:	542d                	li	x8,-21
80002dd2:	542e                	lw	x8,232(x2)
80002dd4:	71542b2b          	0x71542b2b
80002dd8:	0000                	unimp
80002dda:	0000                	unimp
80002ddc:	5431                	li	x8,-20
80002dde:	65342e33          	0x65342e33
80002de2:	7a34                	flw	f13,112(x12)
80002de4:	0000                	unimp
80002de6:	0000                	unimp
80002de8:	302e3433          	0x302e3433
80002dec:	2d65                	jal	800034a4 <_data_vma_end+0x628>
80002dee:	5e54                	lw	x13,60(x12)
80002df0:	0000                	unimp
80002df2:	0000                	unimp
80002df4:	2e35                	jal	80003130 <_data_vma_end+0x2b4>
80002df6:	3035                	jal	80002622 <iterate+0xca2>
80002df8:	6530                	flw	f12,72(x10)
80002dfa:	0000332b          	0x332b
80002dfe:	0000                	unimp
80002e00:	2e2d                	jal	8000313a <_data_vma_end+0x2be>
80002e02:	3231                	jal	8000270e <__udivsi3+0x16>
80002e04:	322d6533          	0x322d6533
80002e08:	0000                	unimp
80002e0a:	0000                	unimp
80002e0c:	382d                	jal	80002646 <iterate+0xcc6>
80002e0e:	382b6537          	lui	x10,0x382b6
80002e12:	00003233          	snez	x4,x0
80002e16:	0000                	unimp
80002e18:	362e302b          	0x362e302b
80002e1c:	2d65                	jal	800034d4 <_data_vma_end+0x658>
80002e1e:	3231                	jal	8000272a <__udivsi3+0x32>
80002e20:	0000                	unimp
80002e22:	0000                	unimp
80002e24:	352e3533          	0x352e3533
80002e28:	3434                	fld	f13,104(x8)
80002e2a:	3030                	fld	f12,96(x8)
80002e2c:	0000                	unimp
80002e2e:	0000                	unimp
80002e30:	312e                	fld	f2,232(x2)
80002e32:	3332                	fld	f6,296(x2)
80002e34:	3534                	fld	f13,104(x10)
80002e36:	3030                	fld	f12,96(x8)
80002e38:	0000                	unimp
80002e3a:	0000                	unimp
80002e3c:	312d                	jal	80002a66 <main+0x2c2>
80002e3e:	3031                	jal	8000264a <iterate+0xcca>
80002e40:	372e                	fld	f14,232(x2)
80002e42:	3030                	fld	f12,96(x8)
80002e44:	0000                	unimp
80002e46:	0000                	unimp
80002e48:	362e302b          	0x362e302b
80002e4c:	3434                	fld	f13,104(x8)
80002e4e:	3030                	fld	f12,96(x8)
80002e50:	0000                	unimp
80002e52:	0000                	unimp
80002e54:	3035                	jal	80002680 <iterate+0xd00>
80002e56:	3231                	jal	80002762 <__umodsi3+0x22>
80002e58:	0000                	unimp
80002e5a:	0000                	unimp
80002e5c:	3231                	jal	80002768 <__umodsi3+0x28>
80002e5e:	00003433          	snez	x8,x0
80002e62:	0000                	unimp
80002e64:	382d                	jal	8000269e <iterate+0xd1e>
80002e66:	00003437          	lui	x8,0x3
80002e6a:	0000                	unimp
80002e6c:	3232312b          	0x3232312b
80002e70:	0000                	unimp
	...

80002e74 <seed4_volatile>:
80002e74:	0001                	nop
	...

80002e78 <seed3_volatile>:
80002e78:	0066                	c.slli	x0,0x19
	...

Disassembly of section .bss:

80002e7c <_bss_vma_start>:
	...

8000364c <seed5_volatile>:
8000364c:	0000                	unimp
	...

80003650 <seed2_volatile>:
80003650:	0000                	unimp
	...

80003654 <seed1_volatile>:
80003654:	0000                	unimp
	...

80003658 <start_time_val>:
80003658:	0000                	unimp
	...

8000365c <stop_time_val>:
8000365c:	0000                	unimp
	...
