
/home/zaizhou3/ece411ta/fa22_ece411_.release/mp4/bin/../sim/bin/comp1_rv32i.elf:     file format elf32-littleriscv


Disassembly of section .text.swinit1:

80000000 <_start>:
80000000:	00000317          	auipc	x6,0x0
80000004:	69030313          	addi	x6,x6,1680 # 80000690 <_text_vma_end>
80000008:	00000397          	auipc	x7,0x0
8000000c:	68838393          	addi	x7,x7,1672 # 80000690 <_text_vma_end>
80000010:	00730863          	beq	x6,x7,80000020 <_setup>

80000014 <_initbss_loop>:
80000014:	00032023          	sw	x0,0(x6)
80000018:	00430313          	addi	x6,x6,4
8000001c:	fe736ce3          	bltu	x6,x7,80000014 <_initbss_loop>

80000020 <_setup>:
80000020:	40000117          	auipc	x2,0x40000
80000024:	fe010113          	addi	x2,x2,-32 # c0000000 <_stack_top>
80000028:	00010433          	add	x8,x2,x0
8000002c:	00000097          	auipc	x1,0x0
80000030:	3e0080e7          	jalr	992(x1) # 8000040c <main>
80000034:	00100293          	li	x5,1
80000038:	00000317          	auipc	x6,0x0
8000003c:	03030313          	addi	x6,x6,48 # 80000068 <tohost>
80000040:	00532023          	sw	x5,0(x6)
80000044:	00032223          	sw	x0,4(x6)
80000048:	00000097          	auipc	x1,0x0
8000004c:	010080e7          	jalr	16(x1) # 80000058 <_fini>
80000050:	00000013          	nop
80000054:	00000013          	nop

Disassembly of section .text.swfin:

80000058 <_fini>:
80000058:	00000063          	beqz	x0,80000058 <_fini>
8000005c:	00000013          	nop
80000060:	00000013          	nop

Disassembly of section .tohost:

80000064 <tohost-0x4>:
80000064:	0000                	unimp
	...

80000068 <tohost>:
	...

Disassembly of section .fromhost:

80000070 <fromhost>:
	...

Disassembly of section .text:

80000078 <fib>:
80000078:	f8010113          	addi	x2,x2,-128
8000007c:	06112e23          	sw	x1,124(x2)
80000080:	06812c23          	sw	x8,120(x2)
80000084:	06912a23          	sw	x9,116(x2)
80000088:	07212823          	sw	x18,112(x2)
8000008c:	07312623          	sw	x19,108(x2)
80000090:	07412423          	sw	x20,104(x2)
80000094:	07512223          	sw	x21,100(x2)
80000098:	07612023          	sw	x22,96(x2)
8000009c:	05712e23          	sw	x23,92(x2)
800000a0:	05812c23          	sw	x24,88(x2)
800000a4:	05912a23          	sw	x25,84(x2)
800000a8:	05a12823          	sw	x26,80(x2)
800000ac:	05b12623          	sw	x27,76(x2)
800000b0:	02a12823          	sw	x10,48(x2)
800000b4:	00100793          	li	x15,1
800000b8:	34f50463          	beq	x10,x15,80000400 <fib+0x388>
800000bc:	fff50713          	addi	x14,x10,-1
800000c0:	ffd50793          	addi	x15,x10,-3
800000c4:	02f12623          	sw	x15,44(x2)
800000c8:	02e12023          	sw	x14,32(x2)
800000cc:	00012c23          	sw	x0,24(x2)
800000d0:	00100d93          	li	x27,1
800000d4:	00070793          	mv	x15,x14
800000d8:	29b78063          	beq	x15,x27,80000358 <fib+0x2e0>
800000dc:	fff78793          	addi	x15,x15,-1
800000e0:	02f12e23          	sw	x15,60(x2)
800000e4:	02f12423          	sw	x15,40(x2)
800000e8:	00012e23          	sw	x0,28(x2)
800000ec:	1fb78e63          	beq	x15,x27,800002e8 <fib+0x270>
800000f0:	fff78793          	addi	x15,x15,-1
800000f4:	02f12c23          	sw	x15,56(x2)
800000f8:	02f12223          	sw	x15,36(x2)
800000fc:	00012a23          	sw	x0,20(x2)
80000100:	19b78263          	beq	x15,x27,80000284 <fib+0x20c>
80000104:	fff78793          	addi	x15,x15,-1
80000108:	02f12a23          	sw	x15,52(x2)
8000010c:	00f12623          	sw	x15,12(x2)
80000110:	00012423          	sw	x0,8(x2)
80000114:	11b78663          	beq	x15,x27,80000220 <fib+0x1a8>
80000118:	fff78793          	addi	x15,x15,-1
8000011c:	00f12823          	sw	x15,16(x2)
80000120:	00078c13          	mv	x24,x15
80000124:	00012023          	sw	x0,0(x2)
80000128:	27bc0863          	beq	x24,x27,80000398 <fib+0x320>
8000012c:	fffc0793          	addi	x15,x24,-1
80000130:	00f12223          	sw	x15,4(x2)
80000134:	00078a93          	mv	x21,x15
80000138:	00000b13          	li	x22,0
8000013c:	25ba8463          	beq	x21,x27,80000384 <fib+0x30c>
80000140:	fffa8d13          	addi	x26,x21,-1
80000144:	000d0a13          	mv	x20,x26
80000148:	00000b93          	li	x23,0
8000014c:	23ba0263          	beq	x20,x27,80000370 <fib+0x2f8>
80000150:	fffa0c93          	addi	x25,x20,-1
80000154:	000c8913          	mv	x18,x25
80000158:	00000993          	li	x19,0
8000015c:	00090413          	mv	x8,x18
80000160:	00000493          	li	x9,0
80000164:	ffe90793          	addi	x15,x18,-2
80000168:	03b90263          	beq	x18,x27,8000018c <fib+0x114>
8000016c:	fff40513          	addi	x10,x8,-1
80000170:	00000097          	auipc	x1,0x0
80000174:	f08080e7          	jalr	-248(x1) # 80000078 <fib>
80000178:	ffe40413          	addi	x8,x8,-2
8000017c:	00a484b3          	add	x9,x9,x10
80000180:	fe8dc6e3          	blt	x27,x8,8000016c <fib+0xf4>
80000184:	ffe90793          	addi	x15,x18,-2
80000188:	0017f413          	andi	x8,x15,1
8000018c:	00940433          	add	x8,x8,x9
80000190:	fff90913          	addi	x18,x18,-1
80000194:	008989b3          	add	x19,x19,x8
80000198:	012dd663          	ble	x18,x27,800001a4 <fib+0x12c>
8000019c:	00078913          	mv	x18,x15
800001a0:	fbdff06f          	j	8000015c <fib+0xe4>
800001a4:	ffea0a13          	addi	x20,x20,-2
800001a8:	001a7793          	andi	x15,x20,1
800001ac:	013789b3          	add	x19,x15,x19
800001b0:	013b8bb3          	add	x23,x23,x19
800001b4:	f99dcce3          	blt	x27,x25,8000014c <fib+0xd4>
800001b8:	ffea8a93          	addi	x21,x21,-2
800001bc:	001af793          	andi	x15,x21,1
800001c0:	01778bb3          	add	x23,x15,x23
800001c4:	017b0b33          	add	x22,x22,x23
800001c8:	f7adcae3          	blt	x27,x26,8000013c <fib+0xc4>
800001cc:	ffec0c13          	addi	x24,x24,-2
800001d0:	001c7793          	andi	x15,x24,1
800001d4:	01678b33          	add	x22,x15,x22
800001d8:	00012783          	lw	x15,0(x2)
800001dc:	016787b3          	add	x15,x15,x22
800001e0:	00f12023          	sw	x15,0(x2)
800001e4:	00412783          	lw	x15,4(x2)
800001e8:	f4fdc0e3          	blt	x27,x15,80000128 <fib+0xb0>
800001ec:	00c12783          	lw	x15,12(x2)
800001f0:	00012683          	lw	x13,0(x2)
800001f4:	ffe78713          	addi	x14,x15,-2
800001f8:	00177793          	andi	x15,x14,1
800001fc:	00d78cb3          	add	x25,x15,x13
80000200:	00812783          	lw	x15,8(x2)
80000204:	019787b3          	add	x15,x15,x25
80000208:	00f12423          	sw	x15,8(x2)
8000020c:	01012783          	lw	x15,16(x2)
80000210:	04fdd063          	ble	x15,x27,80000250 <fib+0x1d8>
80000214:	00e12623          	sw	x14,12(x2)
80000218:	00070793          	mv	x15,x14
8000021c:	efb79ee3          	bne	x15,x27,80000118 <fib+0xa0>
80000220:	00012023          	sw	x0,0(x2)
80000224:	00012683          	lw	x13,0(x2)
80000228:	00100793          	li	x15,1
8000022c:	fffd8713          	addi	x14,x27,-1
80000230:	00d78cb3          	add	x25,x15,x13
80000234:	00812783          	lw	x15,8(x2)
80000238:	00e12823          	sw	x14,16(x2)
8000023c:	ffed8713          	addi	x14,x27,-2
80000240:	019787b3          	add	x15,x15,x25
80000244:	00f12423          	sw	x15,8(x2)
80000248:	01012783          	lw	x15,16(x2)
8000024c:	fcfdc4e3          	blt	x27,x15,80000214 <fib+0x19c>
80000250:	02412783          	lw	x15,36(x2)
80000254:	00812683          	lw	x13,8(x2)
80000258:	ffe78713          	addi	x14,x15,-2
8000025c:	00177793          	andi	x15,x14,1
80000260:	00f687b3          	add	x15,x13,x15
80000264:	01412683          	lw	x13,20(x2)
80000268:	00f687b3          	add	x15,x13,x15
8000026c:	00f12a23          	sw	x15,20(x2)
80000270:	03412783          	lw	x15,52(x2)
80000274:	04fdd063          	ble	x15,x27,800002b4 <fib+0x23c>
80000278:	02e12223          	sw	x14,36(x2)
8000027c:	00070793          	mv	x15,x14
80000280:	e9b792e3          	bne	x15,x27,80000104 <fib+0x8c>
80000284:	00012423          	sw	x0,8(x2)
80000288:	00812683          	lw	x13,8(x2)
8000028c:	00100793          	li	x15,1
80000290:	fffd8713          	addi	x14,x27,-1
80000294:	00f687b3          	add	x15,x13,x15
80000298:	01412683          	lw	x13,20(x2)
8000029c:	02e12a23          	sw	x14,52(x2)
800002a0:	ffed8713          	addi	x14,x27,-2
800002a4:	00f687b3          	add	x15,x13,x15
800002a8:	00f12a23          	sw	x15,20(x2)
800002ac:	03412783          	lw	x15,52(x2)
800002b0:	fcfdc4e3          	blt	x27,x15,80000278 <fib+0x200>
800002b4:	02812783          	lw	x15,40(x2)
800002b8:	01412683          	lw	x13,20(x2)
800002bc:	ffe78713          	addi	x14,x15,-2
800002c0:	00177793          	andi	x15,x14,1
800002c4:	00f687b3          	add	x15,x13,x15
800002c8:	01c12683          	lw	x13,28(x2)
800002cc:	00f687b3          	add	x15,x13,x15
800002d0:	00f12e23          	sw	x15,28(x2)
800002d4:	03812783          	lw	x15,56(x2)
800002d8:	04fdd063          	ble	x15,x27,80000318 <fib+0x2a0>
800002dc:	02e12423          	sw	x14,40(x2)
800002e0:	00070793          	mv	x15,x14
800002e4:	e1b796e3          	bne	x15,x27,800000f0 <fib+0x78>
800002e8:	00012a23          	sw	x0,20(x2)
800002ec:	01412683          	lw	x13,20(x2)
800002f0:	00100793          	li	x15,1
800002f4:	fffd8713          	addi	x14,x27,-1
800002f8:	00f687b3          	add	x15,x13,x15
800002fc:	01c12683          	lw	x13,28(x2)
80000300:	02e12c23          	sw	x14,56(x2)
80000304:	ffed8713          	addi	x14,x27,-2
80000308:	00f687b3          	add	x15,x13,x15
8000030c:	00f12e23          	sw	x15,28(x2)
80000310:	03812783          	lw	x15,56(x2)
80000314:	fcfdc4e3          	blt	x27,x15,800002dc <fib+0x264>
80000318:	02c12783          	lw	x15,44(x2)
8000031c:	0017f793          	andi	x15,x15,1
80000320:	01c12703          	lw	x14,28(x2)
80000324:	00e787b3          	add	x15,x15,x14
80000328:	01812703          	lw	x14,24(x2)
8000032c:	00f707b3          	add	x15,x14,x15
80000330:	02c12703          	lw	x14,44(x2)
80000334:	00f12c23          	sw	x15,24(x2)
80000338:	02012783          	lw	x15,32(x2)
8000033c:	ffe70713          	addi	x14,x14,-2
80000340:	02e12623          	sw	x14,44(x2)
80000344:	03c12703          	lw	x14,60(x2)
80000348:	ffe78793          	addi	x15,x15,-2
8000034c:	06edd263          	ble	x14,x27,800003b0 <fib+0x338>
80000350:	02f12023          	sw	x15,32(x2)
80000354:	d9b794e3          	bne	x15,x27,800000dc <fib+0x64>
80000358:	00078713          	mv	x14,x15
8000035c:	fff70713          	addi	x14,x14,-1
80000360:	00012e23          	sw	x0,28(x2)
80000364:	00100793          	li	x15,1
80000368:	02e12e23          	sw	x14,60(x2)
8000036c:	fb5ff06f          	j	80000320 <fib+0x2a8>
80000370:	00000993          	li	x19,0
80000374:	00100793          	li	x15,1
80000378:	fffd8c93          	addi	x25,x27,-1
8000037c:	ffed8a13          	addi	x20,x27,-2
80000380:	e2dff06f          	j	800001ac <fib+0x134>
80000384:	00000b93          	li	x23,0
80000388:	00100793          	li	x15,1
8000038c:	fffd8d13          	addi	x26,x27,-1
80000390:	ffed8a93          	addi	x21,x27,-2
80000394:	e2dff06f          	j	800001c0 <fib+0x148>
80000398:	fffd8713          	addi	x14,x27,-1
8000039c:	00000b13          	li	x22,0
800003a0:	00100793          	li	x15,1
800003a4:	00e12223          	sw	x14,4(x2)
800003a8:	ffed8c13          	addi	x24,x27,-2
800003ac:	e29ff06f          	j	800001d4 <fib+0x15c>
800003b0:	03012783          	lw	x15,48(x2)
800003b4:	0017f793          	andi	x15,x15,1
800003b8:	02f12823          	sw	x15,48(x2)
800003bc:	01812703          	lw	x14,24(x2)
800003c0:	07c12083          	lw	x1,124(x2)
800003c4:	07812403          	lw	x8,120(x2)
800003c8:	07412483          	lw	x9,116(x2)
800003cc:	07012903          	lw	x18,112(x2)
800003d0:	06c12983          	lw	x19,108(x2)
800003d4:	06812a03          	lw	x20,104(x2)
800003d8:	06412a83          	lw	x21,100(x2)
800003dc:	06012b03          	lw	x22,96(x2)
800003e0:	05c12b83          	lw	x23,92(x2)
800003e4:	05812c03          	lw	x24,88(x2)
800003e8:	05412c83          	lw	x25,84(x2)
800003ec:	05012d03          	lw	x26,80(x2)
800003f0:	04c12d83          	lw	x27,76(x2)
800003f4:	00e78533          	add	x10,x15,x14
800003f8:	08010113          	addi	x2,x2,128
800003fc:	00008067          	ret
80000400:	00012c23          	sw	x0,24(x2)
80000404:	00050793          	mv	x15,x10
80000408:	fb5ff06f          	j	800003bc <fib+0x344>

8000040c <main>:
8000040c:	fe010113          	addi	x2,x2,-32
80000410:	00112e23          	sw	x1,28(x2)
80000414:	00812c23          	sw	x8,24(x2)
80000418:	00912a23          	sw	x9,20(x2)
8000041c:	01212823          	sw	x18,16(x2)
80000420:	01312623          	sw	x19,12(x2)
80000424:	00000713          	li	x14,0
80000428:	00000793          	li	x15,0
8000042c:	0ff00613          	li	x12,255
80000430:	00477693          	andi	x13,x14,4
80000434:	00068463          	beqz	x13,8000043c <main+0x30>
80000438:	0047e793          	ori	x15,x15,4
8000043c:	00877693          	andi	x13,x14,8
80000440:	00068463          	beqz	x13,80000448 <main+0x3c>
80000444:	0087e793          	ori	x15,x15,8
80000448:	01077693          	andi	x13,x14,16
8000044c:	00068463          	beqz	x13,80000454 <main+0x48>
80000450:	0107e793          	ori	x15,x15,16
80000454:	02077693          	andi	x13,x14,32
80000458:	00068463          	beqz	x13,80000460 <main+0x54>
8000045c:	0207e793          	ori	x15,x15,32
80000460:	04077693          	andi	x13,x14,64
80000464:	00068463          	beqz	x13,8000046c <main+0x60>
80000468:	0407e793          	ori	x15,x15,64
8000046c:	01871693          	slli	x13,x14,0x18
80000470:	4186d693          	srai	x13,x13,0x18
80000474:	0206c463          	bltz	x13,8000049c <main+0x90>
80000478:	02e79663          	bne	x15,x14,800004a4 <main+0x98>
8000047c:	00178793          	addi	x15,x15,1
80000480:	0ff7f713          	andi	x14,x15,255
80000484:	02c70063          	beq	x14,x12,800004a4 <main+0x98>
80000488:	00277693          	andi	x13,x14,2
8000048c:	00177793          	andi	x15,x14,1
80000490:	fa0680e3          	beqz	x13,80000430 <main+0x24>
80000494:	0027e793          	ori	x15,x15,2
80000498:	f99ff06f          	j	80000430 <main+0x24>
8000049c:	0807e793          	ori	x15,x15,128
800004a0:	fce78ee3          	beq	x15,x14,8000047c <main+0x70>
800004a4:	00000793          	li	x15,0
800004a8:	00000693          	li	x13,0
800004ac:	00700893          	li	x17,7
800004b0:	00f00813          	li	x16,15
800004b4:	01f00513          	li	x10,31
800004b8:	03f00593          	li	x11,63
800004bc:	07f00613          	li	x12,127
800004c0:	0ff00313          	li	x6,255
800004c4:	00300e13          	li	x28,3
800004c8:	0077f713          	andi	x14,x15,7
800004cc:	01171463          	bne	x14,x17,800004d4 <main+0xc8>
800004d0:	00700693          	li	x13,7
800004d4:	00f7f713          	andi	x14,x15,15
800004d8:	01071463          	bne	x14,x16,800004e0 <main+0xd4>
800004dc:	00f00693          	li	x13,15
800004e0:	01f7f713          	andi	x14,x15,31
800004e4:	00a71463          	bne	x14,x10,800004ec <main+0xe0>
800004e8:	01f00693          	li	x13,31
800004ec:	03f7f713          	andi	x14,x15,63
800004f0:	00b71463          	bne	x14,x11,800004f8 <main+0xec>
800004f4:	03f00693          	li	x13,63
800004f8:	07f7f713          	andi	x14,x15,127
800004fc:	00c71463          	bne	x14,x12,80000504 <main+0xf8>
80000500:	07f00693          	li	x13,127
80000504:	fff7c713          	not	x14,x15
80000508:	01871713          	slli	x14,x14,0x18
8000050c:	00178793          	addi	x15,x15,1
80000510:	41875713          	srai	x14,x14,0x18
80000514:	0ff7f793          	andi	x15,x15,255
80000518:	00f77733          	and	x14,x14,x15
8000051c:	fff70713          	addi	x14,x14,-1
80000520:	0ff77713          	andi	x14,x14,255
80000524:	02d71063          	bne	x14,x13,80000544 <main+0x138>
80000528:	00678e63          	beq	x15,x6,80000544 <main+0x138>
8000052c:	0037f693          	andi	x13,x15,3
80000530:	f9c68ce3          	beq	x13,x28,800004c8 <main+0xbc>
80000534:	0077f713          	andi	x14,x15,7
80000538:	0017f693          	andi	x13,x15,1
8000053c:	f9171ce3          	bne	x14,x17,800004d4 <main+0xc8>
80000540:	f91ff06f          	j	800004d0 <main+0xc4>
80000544:	00000793          	li	x15,0
80000548:	00000593          	li	x11,0
8000054c:	00000693          	li	x13,0
80000550:	00300e93          	li	x29,3
80000554:	00700e13          	li	x28,7
80000558:	00f00313          	li	x6,15
8000055c:	01f00893          	li	x17,31
80000560:	03f00813          	li	x16,63
80000564:	07f00513          	li	x10,127
80000568:	0ff00f13          	li	x30,255
8000056c:	0047f713          	andi	x14,x15,4
80000570:	00070463          	beqz	x14,80000578 <main+0x16c>
80000574:	0046e693          	ori	x13,x13,4
80000578:	0087f713          	andi	x14,x15,8
8000057c:	00070463          	beqz	x14,80000584 <main+0x178>
80000580:	0086e693          	ori	x13,x13,8
80000584:	0107f713          	andi	x14,x15,16
80000588:	00070463          	beqz	x14,80000590 <main+0x184>
8000058c:	0106e693          	ori	x13,x13,16
80000590:	0207f713          	andi	x14,x15,32
80000594:	00070463          	beqz	x14,8000059c <main+0x190>
80000598:	0206e693          	ori	x13,x13,32
8000059c:	0407f713          	andi	x14,x15,64
800005a0:	00070463          	beqz	x14,800005a8 <main+0x19c>
800005a4:	0406e693          	ori	x13,x13,64
800005a8:	01879713          	slli	x14,x15,0x18
800005ac:	41875713          	srai	x14,x14,0x18
800005b0:	00075463          	bgez	x14,800005b8 <main+0x1ac>
800005b4:	0806e693          	ori	x13,x13,128
800005b8:	0037f613          	andi	x12,x15,3
800005bc:	01d61463          	bne	x12,x29,800005c4 <main+0x1b8>
800005c0:	00300593          	li	x11,3
800005c4:	0077f613          	andi	x12,x15,7
800005c8:	01c61463          	bne	x12,x28,800005d0 <main+0x1c4>
800005cc:	00700593          	li	x11,7
800005d0:	00f7f613          	andi	x12,x15,15
800005d4:	00661463          	bne	x12,x6,800005dc <main+0x1d0>
800005d8:	00f00593          	li	x11,15
800005dc:	01f7f613          	andi	x12,x15,31
800005e0:	01161463          	bne	x12,x17,800005e8 <main+0x1dc>
800005e4:	01f00593          	li	x11,31
800005e8:	03f7f613          	andi	x12,x15,63
800005ec:	01061463          	bne	x12,x16,800005f4 <main+0x1e8>
800005f0:	03f00593          	li	x11,63
800005f4:	07f7f613          	andi	x12,x15,127
800005f8:	00a61463          	bne	x12,x10,80000600 <main+0x1f4>
800005fc:	07f00593          	li	x11,127
80000600:	00178613          	addi	x12,x15,1
80000604:	0ff67613          	andi	x12,x12,255
80000608:	fff74713          	not	x14,x14
8000060c:	00c77733          	and	x14,x14,x12
80000610:	fff70713          	addi	x14,x14,-1
80000614:	0ff77713          	andi	x14,x14,255
80000618:	02f69463          	bne	x13,x15,80000640 <main+0x234>
8000061c:	02b71263          	bne	x14,x11,80000640 <main+0x234>
80000620:	03e60063          	beq	x12,x30,80000640 <main+0x234>
80000624:	00167593          	andi	x11,x12,1
80000628:	00267793          	andi	x15,x12,2
8000062c:	00058693          	mv	x13,x11
80000630:	00078463          	beqz	x15,80000638 <main+0x22c>
80000634:	0025e693          	ori	x13,x11,2
80000638:	00060793          	mv	x15,x12
8000063c:	f31ff06f          	j	8000056c <main+0x160>
80000640:	00b00493          	li	x9,11
80000644:	00100913          	li	x18,1
80000648:	fff00993          	li	x19,-1
8000064c:	00048413          	mv	x8,x9
80000650:	01248c63          	beq	x9,x18,80000668 <main+0x25c>
80000654:	fff40513          	addi	x10,x8,-1
80000658:	ffe40413          	addi	x8,x8,-2
8000065c:	00000097          	auipc	x1,0x0
80000660:	a1c080e7          	jalr	-1508(x1) # 80000078 <fib>
80000664:	fe8948e3          	blt	x18,x8,80000654 <main+0x248>
80000668:	ffe48493          	addi	x9,x9,-2
8000066c:	ff3490e3          	bne	x9,x19,8000064c <main+0x240>
80000670:	01c12083          	lw	x1,28(x2)
80000674:	01812403          	lw	x8,24(x2)
80000678:	01412483          	lw	x9,20(x2)
8000067c:	01012903          	lw	x18,16(x2)
80000680:	00c12983          	lw	x19,12(x2)
80000684:	00000513          	li	x10,0
80000688:	02010113          	addi	x2,x2,32
8000068c:	00008067          	ret
