
/home/zaizhou3/ece411ta/fa22_ece411_.release/mp4/bin/../sim/bin/comp2_rv32ic.elf:     file format elf32-littleriscv


Disassembly of section .text.swinit1:

80000000 <_start>:
80000000:	00000317          	auipc	x6,0x0
80000004:	33830313          	addi	x6,x6,824 # 80000338 <_text_vma_end>
80000008:	00000397          	auipc	x7,0x0
8000000c:	33038393          	addi	x7,x7,816 # 80000338 <_text_vma_end>
80000010:	00730763          	beq	x6,x7,8000001e <_setup>

80000014 <_initbss_loop>:
80000014:	00032023          	sw	x0,0(x6)
80000018:	0311                	addi	x6,x6,4
8000001a:	fe736de3          	bltu	x6,x7,80000014 <_initbss_loop>

8000001e <_setup>:
8000001e:	40000117          	auipc	x2,0x40000
80000022:	fe210113          	addi	x2,x2,-30 # c0000000 <_stack_top>
80000026:	00010433          	add	x8,x2,x0
8000002a:	00000097          	auipc	x1,0x0
8000002e:	1a6080e7          	jalr	422(x1) # 800001d0 <main>
80000032:	4285                	li	x5,1
80000034:	00000317          	auipc	x6,0x0
80000038:	02430313          	addi	x6,x6,36 # 80000058 <tohost>
8000003c:	00532023          	sw	x5,0(x6)
80000040:	00032223          	sw	x0,4(x6)
80000044:	00000097          	auipc	x1,0x0
80000048:	00c080e7          	jalr	12(x1) # 80000050 <_fini>
8000004c:	0001                	nop
8000004e:	0001                	nop

Disassembly of section .text.swfin:

80000050 <_fini>:
80000050:	00000063          	beqz	x0,80000050 <_fini>
80000054:	0001                	nop
80000056:	0001                	nop

Disassembly of section .tohost:

80000058 <tohost>:
	...

Disassembly of section .fromhost:

80000060 <fromhost>:
	...

Disassembly of section .text:

80000068 <__muldi3>:
80000068:	00008293          	mv	x5,x1
8000006c:	00050f13          	mv	x30,x10
80000070:	00058513          	mv	x10,x11
80000074:	00068f93          	mv	x31,x13
80000078:	000f0593          	mv	x11,x30
8000007c:	00060713          	mv	x14,x12
80000080:	00000793          	li	x15,0
80000084:	00000393          	li	x7,0
80000088:	00000e93          	li	x29,0
8000008c:	00b38833          	add	x16,x7,x11
80000090:	00177e13          	andi	x28,x14,1
80000094:	00179893          	slli	x17,x15,0x1
80000098:	0005a313          	slti	x6,x11,0
8000009c:	00175713          	srli	x14,x14,0x1
800000a0:	00fe87b3          	add	x15,x29,x15
800000a4:	000e0863          	beqz	x28,800000b4 <__muldi3+0x4c>
800000a8:	00783e33          	sltu	x28,x16,x7
800000ac:	00080393          	mv	x7,x16
800000b0:	00fe0eb3          	add	x29,x28,x15
800000b4:	00159593          	slli	x11,x11,0x1
800000b8:	011367b3          	or	x15,x6,x17
800000bc:	fc0718e3          	bnez	x14,8000008c <__muldi3+0x24>
800000c0:	00050a63          	beqz	x10,800000d4 <__muldi3+0x6c>
800000c4:	00060593          	mv	x11,x12
800000c8:	00000097          	auipc	x1,0x0
800000cc:	0e4080e7          	jalr	228(x1) # 800001ac <__mulsi3>
800000d0:	00ae8eb3          	add	x29,x29,x10
800000d4:	000f8c63          	beqz	x31,800000ec <__muldi3+0x84>
800000d8:	000f8593          	mv	x11,x31
800000dc:	000f0513          	mv	x10,x30
800000e0:	00000097          	auipc	x1,0x0
800000e4:	0cc080e7          	jalr	204(x1) # 800001ac <__mulsi3>
800000e8:	00ae8eb3          	add	x29,x29,x10
800000ec:	00038513          	mv	x10,x7
800000f0:	000e8593          	mv	x11,x29
800000f4:	00028067          	jr	x5

800000f8 <__divsi3>:
800000f8:	06054063          	bltz	x10,80000158 <__umodsi3+0x10>
800000fc:	0605c663          	bltz	x11,80000168 <__umodsi3+0x20>

80000100 <__udivsi3>:
80000100:	00058613          	mv	x12,x11
80000104:	00050593          	mv	x11,x10
80000108:	fff00513          	li	x10,-1
8000010c:	02060c63          	beqz	x12,80000144 <__udivsi3+0x44>
80000110:	00100693          	li	x13,1
80000114:	00b67a63          	bleu	x11,x12,80000128 <__udivsi3+0x28>
80000118:	00c05863          	blez	x12,80000128 <__udivsi3+0x28>
8000011c:	00161613          	slli	x12,x12,0x1
80000120:	00169693          	slli	x13,x13,0x1
80000124:	feb66ae3          	bltu	x12,x11,80000118 <__udivsi3+0x18>
80000128:	00000513          	li	x10,0
8000012c:	00c5e663          	bltu	x11,x12,80000138 <__udivsi3+0x38>
80000130:	40c585b3          	sub	x11,x11,x12
80000134:	00d56533          	or	x10,x10,x13
80000138:	0016d693          	srli	x13,x13,0x1
8000013c:	00165613          	srli	x12,x12,0x1
80000140:	fe0696e3          	bnez	x13,8000012c <__udivsi3+0x2c>
80000144:	00008067          	ret

80000148 <__umodsi3>:
80000148:	00008293          	mv	x5,x1
8000014c:	fb5ff0ef          	jal	x1,80000100 <__udivsi3>
80000150:	00058513          	mv	x10,x11
80000154:	00028067          	jr	x5
80000158:	40a00533          	neg	x10,x10
8000015c:	0005d863          	bgez	x11,8000016c <__umodsi3+0x24>
80000160:	40b005b3          	neg	x11,x11
80000164:	f9dff06f          	j	80000100 <__udivsi3>
80000168:	40b005b3          	neg	x11,x11
8000016c:	00008293          	mv	x5,x1
80000170:	f91ff0ef          	jal	x1,80000100 <__udivsi3>
80000174:	40a00533          	neg	x10,x10
80000178:	00028067          	jr	x5

8000017c <__modsi3>:
8000017c:	00008293          	mv	x5,x1
80000180:	0005ca63          	bltz	x11,80000194 <__modsi3+0x18>
80000184:	00054c63          	bltz	x10,8000019c <__modsi3+0x20>
80000188:	f79ff0ef          	jal	x1,80000100 <__udivsi3>
8000018c:	00058513          	mv	x10,x11
80000190:	00028067          	jr	x5
80000194:	40b005b3          	neg	x11,x11
80000198:	fe0558e3          	bgez	x10,80000188 <__modsi3+0xc>
8000019c:	40a00533          	neg	x10,x10
800001a0:	f61ff0ef          	jal	x1,80000100 <__udivsi3>
800001a4:	40b00533          	neg	x10,x11
800001a8:	00028067          	jr	x5

800001ac <__mulsi3>:
800001ac:	00050613          	mv	x12,x10
800001b0:	00000513          	li	x10,0
800001b4:	0015f693          	andi	x13,x11,1
800001b8:	00068463          	beqz	x13,800001c0 <__mulsi3+0x14>
800001bc:	00c50533          	add	x10,x10,x12
800001c0:	0015d593          	srli	x11,x11,0x1
800001c4:	00161613          	slli	x12,x12,0x1
800001c8:	fe0596e3          	bnez	x11,800001b4 <__mulsi3+0x8>
800001cc:	00008067          	ret

800001d0 <main>:
800001d0:	d3010113          	addi	x2,x2,-720
800001d4:	03c00793          	li	x15,60
800001d8:	2c812423          	sw	x8,712(x2)
800001dc:	2c912223          	sw	x9,708(x2)
800001e0:	2b312e23          	sw	x19,700(x2)
800001e4:	2c112623          	sw	x1,716(x2)
800001e8:	2d212023          	sw	x18,704(x2)
800001ec:	2b412c23          	sw	x20,696(x2)
800001f0:	2b512a23          	sw	x21,692(x2)
800001f4:	2b612823          	sw	x22,688(x2)
800001f8:	2b712623          	sw	x23,684(x2)
800001fc:	2b812423          	sw	x24,680(x2)
80000200:	d0be                	sw	x15,96(x2)
80000202:	4405                	li	x8,1
80000204:	03c00493          	li	x9,60
80000208:	08f00993          	li	x19,143
8000020c:	a011                	j	80000210 <main+0x40>
8000020e:	0405                	addi	x8,x8,1
80000210:	00349513          	slli	x10,x9,0x3
80000214:	8d05                	sub	x10,x10,x9
80000216:	02900593          	li	x11,41
8000021a:	0575                	addi	x10,x10,29
8000021c:	00000097          	auipc	x1,0x0
80000220:	f60080e7          	jalr	-160(x1) # 8000017c <__modsi3>
80000224:	84aa                	mv	x9,x10
80000226:	45b1                	li	x11,12
80000228:	8522                	mv	x10,x8
8000022a:	00000097          	auipc	x1,0x0
8000022e:	ed6080e7          	jalr	-298(x1) # 80000100 <__udivsi3>
80000232:	892a                	mv	x18,x10
80000234:	45b1                	li	x11,12
80000236:	8522                	mv	x10,x8
80000238:	00000097          	auipc	x1,0x0
8000023c:	f10080e7          	jalr	-240(x1) # 80000148 <__umodsi3>
80000240:	00191793          	slli	x15,x18,0x1
80000244:	97ca                	add	x15,x15,x18
80000246:	078a                	slli	x15,x15,0x2
80000248:	97aa                	add	x15,x15,x10
8000024a:	078a                	slli	x15,x15,0x2
8000024c:	1518                	addi	x14,x2,672
8000024e:	97ba                	add	x15,x15,x14
80000250:	dc97a023          	sw	x9,-576(x15)
80000254:	fb341de3          	bne	x8,x19,8000020e <main+0x3e>
80000258:	8b8a                	mv	x23,x2
8000025a:	09010b13          	addi	x22,x2,144
8000025e:	2d010c13          	addi	x24,x2,720
80000262:	fd0b2483          	lw	x9,-48(x22)
80000266:	fd4b0993          	addi	x19,x22,-44
8000026a:	a829                	j	80000284 <main+0xb4>
8000026c:	8626                	mv	x12,x9
8000026e:	86d6                	mv	x13,x21
80000270:	41f55593          	srai	x11,x10,0x1f
80000274:	00000097          	auipc	x1,0x0
80000278:	df4080e7          	jalr	-524(x1) # 80000068 <__muldi3>
8000027c:	0991                	addi	x19,x19,4
8000027e:	84aa                	mv	x9,x10
80000280:	07698463          	beq	x19,x22,800002e8 <main+0x118>
80000284:	0009aa03          	lw	x20,0(x19)
80000288:	8926                	mv	x18,x9
8000028a:	41f4da93          	srai	x21,x9,0x1f
8000028e:	0144e533          	or	x10,x9,x20
80000292:	dd69                	beqz	x10,8000026c <main+0x9c>
80000294:	8552                	mv	x10,x20
80000296:	0144c463          	blt	x9,x20,8000029e <main+0xce>
8000029a:	8526                	mv	x10,x9
8000029c:	8952                	mv	x18,x20
8000029e:	c11d                	beqz	x10,800002c4 <main+0xf4>
800002a0:	08090563          	beqz	x18,8000032a <main+0x15a>
800002a4:	85ca                	mv	x11,x18
800002a6:	00000097          	auipc	x1,0x0
800002aa:	ed6080e7          	jalr	-298(x1) # 8000017c <__modsi3>
800002ae:	842a                	mv	x8,x10
800002b0:	a039                	j	800002be <main+0xee>
800002b2:	00000097          	auipc	x1,0x0
800002b6:	eca080e7          	jalr	-310(x1) # 8000017c <__modsi3>
800002ba:	8922                	mv	x18,x8
800002bc:	842a                	mv	x8,x10
800002be:	85a2                	mv	x11,x8
800002c0:	854a                	mv	x10,x18
800002c2:	f865                	bnez	x8,800002b2 <main+0xe2>
800002c4:	85ca                	mv	x11,x18
800002c6:	8552                	mv	x10,x20
800002c8:	00000097          	auipc	x1,0x0
800002cc:	e30080e7          	jalr	-464(x1) # 800000f8 <__divsi3>
800002d0:	8626                	mv	x12,x9
800002d2:	86d6                	mv	x13,x21
800002d4:	41f55593          	srai	x11,x10,0x1f
800002d8:	00000097          	auipc	x1,0x0
800002dc:	d90080e7          	jalr	-624(x1) # 80000068 <__muldi3>
800002e0:	0991                	addi	x19,x19,4
800002e2:	84aa                	mv	x9,x10
800002e4:	fb6990e3          	bne	x19,x22,80000284 <main+0xb4>
800002e8:	00aba023          	sw	x10,0(x23)
800002ec:	00bba223          	sw	x11,4(x23)
800002f0:	03098b13          	addi	x22,x19,48
800002f4:	0ba1                	addi	x23,x23,8
800002f6:	f76c16e3          	bne	x24,x22,80000262 <main+0x92>
800002fa:	2cc12083          	lw	x1,716(x2)
800002fe:	2c812403          	lw	x8,712(x2)
80000302:	2c412483          	lw	x9,708(x2)
80000306:	2c012903          	lw	x18,704(x2)
8000030a:	2bc12983          	lw	x19,700(x2)
8000030e:	2b812a03          	lw	x20,696(x2)
80000312:	2b412a83          	lw	x21,692(x2)
80000316:	2b012b03          	lw	x22,688(x2)
8000031a:	2ac12b83          	lw	x23,684(x2)
8000031e:	2a812c03          	lw	x24,680(x2)
80000322:	4501                	li	x10,0
80000324:	2d010113          	addi	x2,x2,720
80000328:	8082                	ret
8000032a:	85aa                	mv	x11,x10
8000032c:	8552                	mv	x10,x20
8000032e:	00000097          	auipc	x1,0x0
80000332:	dca080e7          	jalr	-566(x1) # 800000f8 <__divsi3>
80000336:	bf1d                	j	8000026c <main+0x9c>
