
/home/zaizhou3/ece411ta/fa22_ece411_.release/mp4/bin/../sim/bin/comp2_rv32im.elf:     file format elf32-littleriscv


Disassembly of section .text.swinit1:

80000000 <_start>:
80000000:	00000317          	auipc	x6,0x0
80000004:	18430313          	addi	x6,x6,388 # 80000184 <_text_vma_end>
80000008:	00000397          	auipc	x7,0x0
8000000c:	17c38393          	addi	x7,x7,380 # 80000184 <_text_vma_end>
80000010:	00730863          	beq	x6,x7,80000020 <_setup>

80000014 <_initbss_loop>:
80000014:	00032023          	sw	x0,0(x6)
80000018:	00430313          	addi	x6,x6,4
8000001c:	fe736ce3          	bltu	x6,x7,80000014 <_initbss_loop>

80000020 <_setup>:
80000020:	40000117          	auipc	x2,0x40000
80000024:	fe010113          	addi	x2,x2,-32 # c0000000 <_stack_top>
80000028:	00010433          	add	x8,x2,x0
8000002c:	00000097          	auipc	x1,0x0
80000030:	04c080e7          	jalr	76(x1) # 80000078 <main>
80000034:	00100293          	li	x5,1
80000038:	00000317          	auipc	x6,0x0
8000003c:	03030313          	addi	x6,x6,48 # 80000068 <tohost>
80000040:	00532023          	sw	x5,0(x6)
80000044:	00032223          	sw	x0,4(x6)
80000048:	00000097          	auipc	x1,0x0
8000004c:	010080e7          	jalr	16(x1) # 80000058 <_fini>
80000050:	00000013          	nop
80000054:	00000013          	nop

Disassembly of section .text.swfin:

80000058 <_fini>:
80000058:	00000063          	beqz	x0,80000058 <_fini>
8000005c:	00000013          	nop
80000060:	00000013          	nop

Disassembly of section .tohost:

80000064 <tohost-0x4>:
80000064:	0000                	unimp
	...

80000068 <tohost>:
	...

Disassembly of section .fromhost:

80000070 <fromhost>:
	...

Disassembly of section .text:

80000078 <main>:
80000078:	d6010113          	addi	x2,x2,-672
8000007c:	03c00793          	li	x15,60
80000080:	06f12023          	sw	x15,96(x2)
80000084:	00100613          	li	x12,1
80000088:	03c00593          	li	x11,60
8000008c:	02900313          	li	x6,41
80000090:	00c00813          	li	x16,12
80000094:	08f00893          	li	x17,143
80000098:	0080006f          	j	800000a0 <main+0x28>
8000009c:	00160613          	addi	x12,x12,1
800000a0:	03065533          	divu	x10,x12,x16
800000a4:	00359693          	slli	x13,x11,0x3
800000a8:	40b686b3          	sub	x13,x13,x11
800000ac:	01d68693          	addi	x13,x13,29
800000b0:	030677b3          	remu	x15,x12,x16
800000b4:	00151713          	slli	x14,x10,0x1
800000b8:	00a70733          	add	x14,x14,x10
800000bc:	00271713          	slli	x14,x14,0x2
800000c0:	0266e5b3          	rem	x11,x13,x6
800000c4:	00f707b3          	add	x15,x14,x15
800000c8:	00279793          	slli	x15,x15,0x2
800000cc:	2a010713          	addi	x14,x2,672
800000d0:	00f707b3          	add	x15,x14,x15
800000d4:	dcb7a023          	sw	x11,-576(x15)
800000d8:	fd1612e3          	bne	x12,x17,8000009c <main+0x24>
800000dc:	00010893          	mv	x17,x2
800000e0:	09010813          	addi	x16,x2,144
800000e4:	2d010313          	addi	x6,x2,720
800000e8:	fd082683          	lw	x13,-48(x16)
800000ec:	fd480613          	addi	x12,x16,-44
800000f0:	0140006f          	j	80000104 <main+0x8c>
800000f4:	00460613          	addi	x12,x12,4
800000f8:	02f69733          	mulh	x14,x13,x15
800000fc:	02f686b3          	mul	x13,x13,x15
80000100:	05060863          	beq	x12,x16,80000150 <main+0xd8>
80000104:	00062503          	lw	x10,0(x12)
80000108:	00a6e7b3          	or	x15,x13,x10
8000010c:	fe0784e3          	beqz	x15,800000f4 <main+0x7c>
80000110:	06a6c063          	blt	x13,x10,80000170 <main+0xf8>
80000114:	00050793          	mv	x15,x10
80000118:	00068713          	mv	x14,x13
8000011c:	02070063          	beqz	x14,8000013c <main+0xc4>
80000120:	04078e63          	beqz	x15,8000017c <main+0x104>
80000124:	02f76733          	rem	x14,x14,x15
80000128:	00070a63          	beqz	x14,8000013c <main+0xc4>
8000012c:	02e7e5b3          	rem	x11,x15,x14
80000130:	00070793          	mv	x15,x14
80000134:	00058713          	mv	x14,x11
80000138:	fe071ae3          	bnez	x14,8000012c <main+0xb4>
8000013c:	02f547b3          	div	x15,x10,x15
80000140:	00460613          	addi	x12,x12,4
80000144:	02f69733          	mulh	x14,x13,x15
80000148:	02f686b3          	mul	x13,x13,x15
8000014c:	fb061ce3          	bne	x12,x16,80000104 <main+0x8c>
80000150:	00d8a023          	sw	x13,0(x17)
80000154:	00e8a223          	sw	x14,4(x17)
80000158:	03060813          	addi	x16,x12,48
8000015c:	00888893          	addi	x17,x17,8
80000160:	f90314e3          	bne	x6,x16,800000e8 <main+0x70>
80000164:	00000513          	li	x10,0
80000168:	2a010113          	addi	x2,x2,672
8000016c:	00008067          	ret
80000170:	00068793          	mv	x15,x13
80000174:	00050713          	mv	x14,x10
80000178:	fa5ff06f          	j	8000011c <main+0xa4>
8000017c:	02e547b3          	div	x15,x10,x14
80000180:	f75ff06f          	j	800000f4 <main+0x7c>
